

HI-TECH Software PIC LITE Macro Assembler V9.71a build 6446 
                                                                                               Mon Dec 21 19:45:15 2020

HI-TECH Software Omniscient Code Generator (Lite mode) build 6446
     1  0000                     opt subtitle "HI-TECH Software Omniscient Code Generator (Lite mode) build 6446"
     2                           
     3                           opt pagewidth 120
     4                           
     5                           	opt lm
     6                           
     7                           	processor	16F877A
     8                           clrc	macro
     9                           	bcf	3,0
    10  0000                     	endm
    11                           clrz	macro
    12                           	bcf	3,2
    13  0000                     	endm
    14                           setc	macro
    15                           	bsf	3,0
    16  0000                     	endm
    17                           setz	macro
    18                           	bsf	3,2
    19  0000                     	endm
    20                           skipc	macro
    21                           	btfss	3,0
    22  0000                     	endm
    23                           skipz	macro
    24                           	btfss	3,2
    25  0000                     	endm
    26                           skipnc	macro
    27                           	btfsc	3,0
    28  0000                     	endm
    29                           skipnz	macro
    30                           	btfsc	3,2
    31  0000                     	endm
    32  0000                     indf	equ	0
    33  0000                     indf0	equ	0
    34  0002                     pc	equ	2
    35  0002                     pcl	equ	2
    36  0003                     status	equ	3
    37  0004                     fsr	equ	4
    38  0004                     fsr0	equ	4
    39  0001                     c	equ	1
    40  0000                     z	equ	0
    41  000A                     pclath	equ	10
    42                           	FNCALL	_main,_lcd_init
    43                           	FNCALL	_main,_lcd_cmd
    44                           	FNCALL	_main,_lcd_string
    45                           	FNCALL	_main,_adc_value
    46                           	FNCALL	_main,_display
    47                           	FNCALL	_main,_temp_value
    48                           	FNCALL	_main,_display1
    49                           	FNCALL	_display1,_lcd_cmd
    50                           	FNCALL	_display1,___lwdiv
    51                           	FNCALL	_display1,_lcd_char
    52                           	FNCALL	_display1,___lwmod
    53                           	FNCALL	_display,_lcd_cmd
    54                           	FNCALL	_display,___lwdiv
    55                           	FNCALL	_display,_lcd_char
    56                           	FNCALL	_display,___lwmod
    57                           	FNCALL	_lcd_string,_lcd_char
    58                           	FNCALL	_lcd_init,_lcd_cmd
    59                           	FNCALL	_temp_value,_adc_init
    60                           	FNCALL	_temp_value,___lwtoft
    61                           	FNCALL	_temp_value,___ftdiv
    62                           	FNCALL	_temp_value,___ftmul
    63                           	FNCALL	_temp_value,___fttol
    64                           	FNCALL	___lwtoft,___ftpack
    65                           	FNCALL	___ftmul,___ftpack
    66                           	FNCALL	___ftdiv,___ftpack
    67                           	FNCALL	_adc_value,_adc_init
    68                           	FNROOT	_main
    69                           	global	main@F569
    70                           psect	idataBANK0,class=CODE,space=0,delta=2
    71                           global __pidataBANK0
    72  01EE                     __pidataBANK0:
    73                           	file	"../../app/inc/..\..\platform\..\core\drv\adc\inc\adc_driver.h"
    74                           	line	24
    75                           
    76                           ;initializer for main@F569
    77  01EE  3470               	retlw	070h
    78  01EF  346F               	retlw	06Fh
    79  01F0  3474               	retlw	074h
    80  01F1  3420               	retlw	020h
    81  01F2  3476               	retlw	076h
    82  01F3  3461               	retlw	061h
    83  01F4  346C               	retlw	06Ch
    84  01F5  343A               	retlw	03Ah
    85  01F6  3400               	retlw	0
    86                           	global	_ADCON0
    87  001F                     _ADCON0	set	31
    88                           	global	_ADRESH
    89  001E                     _ADRESH	set	30
    90                           	global	_PORTB
    91  0006                     _PORTB	set	6
    92                           	global	_PORTE
    93  0009                     _PORTE	set	9
    94                           	global	_RE0
    95  0048                     _RE0	set	72
    96                           	global	_RE1
    97  0049                     _RE1	set	73
    98                           	global	_RE2
    99  004A                     _RE2	set	74
   100                           	global	_ADCON1
   101  009F                     _ADCON1	set	159
   102                           	global	_ADRESL
   103  009E                     _ADRESL	set	158
   104                           	global	_TRISB
   105  0086                     _TRISB	set	134
   106                           	global	_TRISE
   107  0089                     _TRISE	set	137
   108                           psect	strings,class=STRING,delta=2
   109                           global __pstrings
   110  0003                     __pstrings:
   111                           ;	global	stringdir,stringtab,__stringbase
   112  0003                     stringtab:
   113                           ;	String table - string pointers are 1 byte each
   114  0003  1BFF               	btfsc	(btemp+1),7
   115  0004  280D               	ljmp	stringcode
   116  0005  1383               	bcf	status,7
   117  0006  187F               	btfsc	(btemp+1),0
   118  0007  1783               	bsf	status,7
   119  0008  0800               	movf	indf,w
   120  0009  0A84               	incf fsr
   121  000A  1903               skipnz
   122  000B  0AFF               incf btemp+1
   123  000C  0008               	return
   124  000D                     stringcode:stringdir:
      + 000D                     stringdir:	
   125  000D  3000               movlw high(stringdir)
   126  000E  008A               movwf pclath
   127  000F  0804               movf fsr,w
   128  0010  0A84               incf fsr
   129  0011  0782               	addwf pc
   130  0012                     __stringbase:
   131  0012  3400               	retlw	0
   132                           psect	strings
   133                           	
   134  0013                     STR_1:	
   135  0013  3474               	retlw	116	;'t'
   136  0014  3465               	retlw	101	;'e'
   137  0015  346D               	retlw	109	;'m'
   138  0016  3470               	retlw	112	;'p'
   139  0017  3420               	retlw	32	;' '
   140  0018  3476               	retlw	118	;'v'
   141  0019  3461               	retlw	97	;'a'
   142  001A  346C               	retlw	108	;'l'
   143  001B  343A               	retlw	58	;':'
   144  001C  3400               	retlw	0
   145                           psect	strings
   146                           	file	"adc.as"
   147                           	line	#
   148                           psect cinit,class=CODE,delta=2
   149                           global start_initialization
   150  0216                     start_initialization:
   151                           
   152                           psect	dataBANK0,class=BANK0,space=1
   153                           global __pdataBANK0
   154  005F                     __pdataBANK0:
   155                           	file	"../../app/inc/..\..\platform\..\core\drv\adc\inc\adc_driver.h"
   156  005F                     main@F569:
   157  005F                            ds      9
   158                           
   159                           global btemp
   160                           psect inittext,class=CODE,delta=2
   161                           global init_fetch,btemp
   162                           ;	Called with low address in FSR and high address in W
   163  0205                     init_fetch:
   164  0205  087E               	movf btemp,w
   165  0206  008A               	movwf pclath
   166  0207  087F               	movf btemp+1,w
   167  0208  0082               	movwf pc
   168                           global init_ram
   169                           ;Called with:
   170                           ;	high address of idata address in btemp 
   171                           ;	low address of idata address in btemp+1 
   172                           ;	low address of data in FSR
   173                           ;	high address + 1 of data in btemp-1
   174  0209                     init_ram:
   175  0209  2205  120A  118A   	fcall init_fetch
   176  020C  0080               	movwf indf,f
   177  020D  0A84               	incf fsr,f
   178  020E  0804               	movf fsr,w
   179  020F  067D               	xorwf btemp-1,w
   180  0210  1903               	btfsc status,2
   181  0211  3400               	retlw 0
   182  0212  0AFF               	incf btemp+1,f
   183  0213  1903               	btfsc status,2
   184  0214  0AFE               	incf btemp,f
   185  0215  2A09               	goto init_ram
   186                           ; Initialize objects allocated to BANK0
   187                           psect cinit,class=CODE,delta=2
   188                           global init_ram, __pidataBANK0
   189  0216  1383               	bcf	status, 7	;select IRP bank0
   190  0217  3068               	movlw low(__pdataBANK0+9)
   191  0218  00FD               	movwf btemp-1,f
   192  0219  3001               	movlw high(__pidataBANK0)
   193  021A  00FE               	movwf btemp,f
   194  021B  30EE               	movlw low(__pidataBANK0)
   195  021C  00FF               	movwf btemp+1,f
   196  021D  305F               	movlw low(__pdataBANK0)
   197  021E  0084               	movwf fsr,f
   198  021F  120A  118A  2209   	fcall init_ram
              120A  118A         
   199                           psect cinit,class=CODE,delta=2
   200                           global end_of_initialization
   201                           
   202                           ;End of C runtime variable initialization code
   203                           
   204  0224                     end_of_initialization:
   205  0224  0183               clrf status
   206  0225  120A  118A  2BC2   ljmp _main	;jump to C main() function
   207                           psect	cstackCOMMON,class=COMMON,space=1
   208                           global __pcstackCOMMON
   209  0070                     __pcstackCOMMON:
   210                           	global	?_lcd_init
   211  0070                     ?_lcd_init:	; 0 bytes @ 0x0
   212                           	global	?_lcd_cmd
   213  0070                     ?_lcd_cmd:	; 0 bytes @ 0x0
   214                           	global	??_lcd_cmd
   215  0070                     ??_lcd_cmd:	; 0 bytes @ 0x0
   216                           	global	?_lcd_char
   217  0070                     ?_lcd_char:	; 0 bytes @ 0x0
   218                           	global	??_lcd_char
   219  0070                     ??_lcd_char:	; 0 bytes @ 0x0
   220                           	global	?_main
   221  0070                     ?_main:	; 0 bytes @ 0x0
   222                           	global	?_adc_init
   223  0070                     ?_adc_init:	; 2 bytes @ 0x0
   224                           	global	?___lwmod
   225  0070                     ?___lwmod:	; 2 bytes @ 0x0
   226                           	global	?___ftpack
   227  0070                     ?___ftpack:	; 3 bytes @ 0x0
   228                           	global	___lwmod@divisor
   229  0070                     ___lwmod@divisor:	; 2 bytes @ 0x0
   230                           	global	___ftpack@arg
   231  0070                     ___ftpack@arg:	; 3 bytes @ 0x0
   232  0070                     	ds	1
   233                           	global	lcd_cmd@cmd
   234  0071                     lcd_cmd@cmd:	; 1 bytes @ 0x1
   235                           	global	lcd_char@data
   236  0071                     lcd_char@data:	; 1 bytes @ 0x1
   237  0071                     	ds	1
   238                           	global	??_lcd_init
   239  0072                     ??_lcd_init:	; 0 bytes @ 0x2
   240                           	global	?_lcd_string
   241  0072                     ?_lcd_string:	; 0 bytes @ 0x2
   242                           	global	??_adc_init
   243  0072                     ??_adc_init:	; 0 bytes @ 0x2
   244                           	global	lcd_string@ptr
   245  0072                     lcd_string@ptr:	; 2 bytes @ 0x2
   246                           	global	___lwmod@dividend
   247  0072                     ___lwmod@dividend:	; 2 bytes @ 0x2
   248  0072                     	ds	1
   249                           	global	___ftpack@exp
   250  0073                     ___ftpack@exp:	; 1 bytes @ 0x3
   251  0073                     	ds	1
   252                           	global	??_lcd_string
   253  0074                     ??_lcd_string:	; 0 bytes @ 0x4
   254                           	global	??___lwmod
   255  0074                     ??___lwmod:	; 0 bytes @ 0x4
   256                           	global	___ftpack@sign
   257  0074                     ___ftpack@sign:	; 1 bytes @ 0x4
   258                           	global	adc_init@value
   259  0074                     adc_init@value:	; 2 bytes @ 0x4
   260  0074                     	ds	1
   261                           	global	??___ftpack
   262  0075                     ??___ftpack:	; 0 bytes @ 0x5
   263                           	global	___lwmod@counter
   264  0075                     ___lwmod@counter:	; 1 bytes @ 0x5
   265  0075                     	ds	1
   266                           	global	?___lwdiv
   267  0076                     ?___lwdiv:	; 2 bytes @ 0x6
   268                           	global	adc_init@channel
   269  0076                     adc_init@channel:	; 1 bytes @ 0x6
   270                           	global	___lwdiv@divisor
   271  0076                     ___lwdiv@divisor:	; 2 bytes @ 0x6
   272  0076                     	ds	1
   273                           	global	?_adc_value
   274  0077                     ?_adc_value:	; 2 bytes @ 0x7
   275  0077                     	ds	1
   276                           	global	?___fttol
   277  0078                     ?___fttol:	; 4 bytes @ 0x8
   278                           	global	___lwdiv@dividend
   279  0078                     ___lwdiv@dividend:	; 2 bytes @ 0x8
   280                           	global	___fttol@f1
   281  0078                     ___fttol@f1:	; 3 bytes @ 0x8
   282  0078                     	ds	1
   283                           	global	??_adc_value
   284  0079                     ??_adc_value:	; 0 bytes @ 0x9
   285                           	global	adc_value@channel
   286  0079                     adc_value@channel:	; 1 bytes @ 0x9
   287  0079                     	ds	1
   288                           	global	??___lwdiv
   289  007A                     ??___lwdiv:	; 0 bytes @ 0xA
   290  007A                     	ds	1
   291                           	global	___lwdiv@quotient
   292  007B                     ___lwdiv@quotient:	; 2 bytes @ 0xB
   293  007B                     	ds	1
   294                           	global	??___lwtoft
   295  007C                     ??___lwtoft:	; 0 bytes @ 0xC
   296  007C                     	ds	1
   297                           	global	??_temp_value
   298  007D                     ??_temp_value:	; 0 bytes @ 0xD
   299                           	global	temp_value@channel
   300  007D                     temp_value@channel:	; 1 bytes @ 0xD
   301                           	global	___lwdiv@counter
   302  007D                     ___lwdiv@counter:	; 1 bytes @ 0xD
   303  007D                     	ds	1
   304                           	global	??_display
   305  007E                     ??_display:	; 0 bytes @ 0xE
   306                           	global	??_display1
   307  007E                     ??_display1:	; 0 bytes @ 0xE
   308                           psect	cstackBANK0,class=BANK0,space=1
   309                           global __pcstackBANK0
   310  0020                     __pcstackBANK0:
   311                           	global	?_display
   312  0020                     ?_display:	; 0 bytes @ 0x0
   313                           	global	??___fttol
   314  0020                     ??___fttol:	; 0 bytes @ 0x0
   315                           	global	display@value
   316  0020                     display@value:	; 2 bytes @ 0x0
   317  0020                     	ds	2
   318                           	global	display@location
   319  0022                     display@location:	; 1 bytes @ 0x2
   320  0022                     	ds	2
   321                           	global	___fttol@sign1
   322  0024                     ___fttol@sign1:	; 1 bytes @ 0x4
   323  0024                     	ds	1
   324                           	global	___fttol@lval
   325  0025                     ___fttol@lval:	; 4 bytes @ 0x5
   326  0025                     	ds	4
   327                           	global	___fttol@exp1
   328  0029                     ___fttol@exp1:	; 1 bytes @ 0x9
   329  0029                     	ds	1
   330                           	global	?___lwtoft
   331  002A                     ?___lwtoft:	; 3 bytes @ 0xA
   332                           	global	___lwtoft@c
   333  002A                     ___lwtoft@c:	; 2 bytes @ 0xA
   334  002A                     	ds	3
   335                           	global	?___ftdiv
   336  002D                     ?___ftdiv:	; 3 bytes @ 0xD
   337                           	global	___ftdiv@f2
   338  002D                     ___ftdiv@f2:	; 3 bytes @ 0xD
   339  002D                     	ds	3
   340                           	global	___ftdiv@f1
   341  0030                     ___ftdiv@f1:	; 3 bytes @ 0x10
   342  0030                     	ds	3
   343                           	global	??___ftdiv
   344  0033                     ??___ftdiv:	; 0 bytes @ 0x13
   345  0033                     	ds	4
   346                           	global	___ftdiv@cntr
   347  0037                     ___ftdiv@cntr:	; 1 bytes @ 0x17
   348  0037                     	ds	1
   349                           	global	___ftdiv@f3
   350  0038                     ___ftdiv@f3:	; 3 bytes @ 0x18
   351  0038                     	ds	3
   352                           	global	___ftdiv@exp
   353  003B                     ___ftdiv@exp:	; 1 bytes @ 0x1B
   354  003B                     	ds	1
   355                           	global	___ftdiv@sign
   356  003C                     ___ftdiv@sign:	; 1 bytes @ 0x1C
   357  003C                     	ds	1
   358                           	global	?___ftmul
   359  003D                     ?___ftmul:	; 3 bytes @ 0x1D
   360                           	global	___ftmul@f1
   361  003D                     ___ftmul@f1:	; 3 bytes @ 0x1D
   362  003D                     	ds	3
   363                           	global	___ftmul@f2
   364  0040                     ___ftmul@f2:	; 3 bytes @ 0x20
   365  0040                     	ds	3
   366                           	global	??___ftmul
   367  0043                     ??___ftmul:	; 0 bytes @ 0x23
   368  0043                     	ds	4
   369                           	global	___ftmul@exp
   370  0047                     ___ftmul@exp:	; 1 bytes @ 0x27
   371  0047                     	ds	1
   372                           	global	___ftmul@f3_as_product
   373  0048                     ___ftmul@f3_as_product:	; 3 bytes @ 0x28
   374  0048                     	ds	3
   375                           	global	___ftmul@cntr
   376  004B                     ___ftmul@cntr:	; 1 bytes @ 0x2B
   377  004B                     	ds	1
   378                           	global	___ftmul@sign
   379  004C                     ___ftmul@sign:	; 1 bytes @ 0x2C
   380  004C                     	ds	1
   381                           	global	?_temp_value
   382  004D                     ?_temp_value:	; 2 bytes @ 0x2D
   383  004D                     	ds	2
   384                           	global	?_display1
   385  004F                     ?_display1:	; 0 bytes @ 0x2F
   386                           	global	display1@value
   387  004F                     display1@value:	; 2 bytes @ 0x2F
   388  004F                     	ds	2
   389                           	global	display1@location
   390  0051                     display1@location:	; 1 bytes @ 0x31
   391  0051                     	ds	1
   392                           	global	??_main
   393  0052                     ??_main:	; 0 bytes @ 0x32
   394  0052                     	ds	4
   395                           	global	main@a
   396  0056                     main@a:	; 9 bytes @ 0x36
   397  0056                     	ds	9
   398 ;;Data sizes: Strings 10, constant 0, data 9, bss 0, persistent 0 stack 0
   399 ;;Auto spaces:   Size  Autos    Used
   400 ;; COMMON          14     14      14
   401 ;; BANK0           80     63      72
   402 ;; BANK1           80      0       0
   403 ;; BANK3           96      0       0
   404 ;; BANK2           96      0       0
   405                           
   406 ;;
   407 ;; Pointer list with targets:
   408                           
   409 ;; ?___ftpack	float  size(1) Largest target is 0
   410 ;;
   411 ;; ?___lwmod	unsigned int  size(1) Largest target is 0
   412 ;;
   413 ;; ?___lwdiv	unsigned int  size(1) Largest target is 0
   414 ;;
   415 ;; ?___fttol	long  size(1) Largest target is 0
   416 ;;
   417 ;; ?_temp_value	unsigned short  size(1) Largest target is 0
   418 ;;
   419 ;; ?___ftdiv	float  size(1) Largest target is 0
   420 ;;
   421 ;; ?___lwtoft	float  size(1) Largest target is 0
   422 ;;
   423 ;; ?___ftmul	float  size(1) Largest target is 0
   424 ;;
   425 ;; ?_adc_value	unsigned short  size(1) Largest target is 0
   426 ;;
   427 ;; ?_adc_init	unsigned short  size(1) Largest target is 0
   428 ;;
   429 ;; lcd_string@ptr	PTR const unsigned char  size(2) Largest target is 10
   430 ;;		 -> STR_1(CODE[10]), main@a(BANK0[9]), 
   431 ;;
   432                           
   433                           
   434 ;;
   435 ;; Critical Paths under _main in COMMON
   436 ;;
   437 ;;   _main->_temp_value
   438 ;;   _display1->___lwdiv
   439 ;;   _display1->_temp_value
   440 ;;   _display->___lwdiv
   441 ;;   _lcd_string->_lcd_char
   442 ;;   _lcd_init->_lcd_cmd
   443 ;;   _temp_value->___lwtoft
   444 ;;   ___lwtoft->___fttol
   445 ;;   ___ftmul->___lwtoft
   446 ;;   ___ftdiv->___lwtoft
   447 ;;   _adc_value->_adc_init
   448 ;;   ___fttol->___ftpack
   449 ;;   ___lwdiv->___lwmod
   450 ;;
   451 ;; Critical Paths under _main in BANK0
   452 ;;
   453 ;;   _main->_display1
   454 ;;   _display1->_temp_value
   455 ;;   _temp_value->___ftmul
   456 ;;   ___lwtoft->___fttol
   457 ;;   ___ftmul->___ftdiv
   458 ;;   ___ftdiv->___lwtoft
   459 ;;
   460 ;; Critical Paths under _main in BANK1
   461 ;;
   462 ;;   None.
   463 ;;
   464 ;; Critical Paths under _main in BANK3
   465 ;;
   466 ;;   None.
   467 ;;
   468 ;; Critical Paths under _main in BANK2
   469 ;;
   470 ;;   None.
   471                           
   472 ;;
   473 ;;Main: autosize = 0, tempsize = 4, incstack = 0, save=0
   474 ;;
   475                           
   476 ;;
   477 ;;Call Graph Tables:
   478 ;;
   479 ;; ---------------------------------------------------------------------------------
   480 ;; (Depth) Function   	        Calls       Base Space   Used Autos Params    Refs
   481 ;; ---------------------------------------------------------------------------------
   482 ;; (0) _main                                                13    13      0    2773
   483 ;;                                             50 BANK0     13    13      0
   484 ;;                           _lcd_init
   485 ;;                            _lcd_cmd
   486 ;;                         _lcd_string
   487 ;;                          _adc_value
   488 ;;                            _display
   489 ;;                         _temp_value
   490 ;;                           _display1
   491 ;; ---------------------------------------------------------------------------------
   492 ;; (1) _display1                                             3     0      3     475
   493 ;;                                             47 BANK0      3     0      3
   494 ;;                            _lcd_cmd
   495 ;;                            ___lwdiv
   496 ;;                           _lcd_char
   497 ;;                            ___lwmod
   498 ;;                         _temp_value (ARG)
   499 ;; ---------------------------------------------------------------------------------
   500 ;; (1) _display                                              3     0      3     475
   501 ;;                                              0 BANK0      3     0      3
   502 ;;                            _lcd_cmd
   503 ;;                            ___lwdiv
   504 ;;                           _lcd_char
   505 ;;                            ___lwmod
   506 ;;                          _adc_value (ARG)
   507 ;; ---------------------------------------------------------------------------------
   508 ;; (1) _lcd_string                                           2     0      2      67
   509 ;;                                              2 COMMON     2     0      2
   510 ;;                           _lcd_char
   511 ;; ---------------------------------------------------------------------------------
   512 ;; (1) _lcd_init                                             0     0      0      22
   513 ;;                            _lcd_cmd
   514 ;; ---------------------------------------------------------------------------------
   515 ;; (1) _temp_value                                           3     1      2    1597
   516 ;;                                             13 COMMON     1     1      0
   517 ;;                                             45 BANK0      2     0      2
   518 ;;                           _adc_init
   519 ;;                           ___lwtoft
   520 ;;                            ___ftdiv
   521 ;;                            ___ftmul
   522 ;;                            ___fttol
   523 ;; ---------------------------------------------------------------------------------
   524 ;; (2) ___lwtoft                                             4     1      3     231
   525 ;;                                             12 COMMON     1     1      0
   526 ;;                                             10 BANK0      3     0      3
   527 ;;                           ___ftpack
   528 ;;                           _adc_init (ARG)
   529 ;;                            ___fttol (ARG)
   530 ;; ---------------------------------------------------------------------------------
   531 ;; (2) ___ftmul                                             16    10      6     535
   532 ;;                                             29 BANK0     16    10      6
   533 ;;                           ___ftpack
   534 ;;                            ___ftdiv (ARG)
   535 ;;                           ___lwtoft (ARG)
   536 ;;                           _adc_init (ARG)
   537 ;;                            ___fttol (ARG)
   538 ;; ---------------------------------------------------------------------------------
   539 ;; (2) ___ftdiv                                             16    10      6     489
   540 ;;                                             13 BANK0     16    10      6
   541 ;;                           ___ftpack
   542 ;;                           ___lwtoft (ARG)
   543 ;;                           _adc_init (ARG)
   544 ;;                            ___fttol (ARG)
   545 ;; ---------------------------------------------------------------------------------
   546 ;; (2) _lcd_char                                             2     2      0      22
   547 ;;                                              0 COMMON     2     2      0
   548 ;; ---------------------------------------------------------------------------------
   549 ;; (2) _lcd_cmd                                              2     2      0      22
   550 ;;                                              0 COMMON     2     2      0
   551 ;; ---------------------------------------------------------------------------------
   552 ;; (1) _adc_value                                            3     1      2      90
   553 ;;                                              7 COMMON     3     1      2
   554 ;;                           _adc_init
   555 ;; ---------------------------------------------------------------------------------
   556 ;; (2) ___fttol                                             14    10      4     252
   557 ;;                                              8 COMMON     4     0      4
   558 ;;                                              0 BANK0     10    10      0
   559 ;;                           ___ftpack (ARG)
   560 ;;                           _adc_init (ARG)
   561 ;; ---------------------------------------------------------------------------------
   562 ;; (3) ___ftpack                                             8     3      5     209
   563 ;;                                              0 COMMON     8     3      5
   564 ;; ---------------------------------------------------------------------------------
   565 ;; (2) ___lwmod                                              6     2      4     159
   566 ;;                                              0 COMMON     6     2      4
   567 ;; ---------------------------------------------------------------------------------
   568 ;; (2) ___lwdiv                                              8     4      4     162
   569 ;;                                              6 COMMON     8     4      4
   570 ;;                            ___lwmod (ARG)
   571 ;; ---------------------------------------------------------------------------------
   572 ;; (2) _adc_init                                             7     5      2      68
   573 ;;                                              0 COMMON     7     5      2
   574 ;; ---------------------------------------------------------------------------------
   575 ;; Estimated maximum stack depth 3
   576 ;; ---------------------------------------------------------------------------------
   577                           
   578 ;; Call Graph Graphs:
   579                           
   580 ;; _main (ROOT)
   581 ;;   _lcd_init
   582 ;;     _lcd_cmd
   583 ;;   _lcd_cmd
   584 ;;   _lcd_string
   585 ;;     _lcd_char
   586 ;;   _adc_value
   587 ;;     _adc_init
   588 ;;   _display
   589 ;;     _lcd_cmd
   590 ;;     ___lwdiv
   591 ;;       ___lwmod (ARG)
   592 ;;     _lcd_char
   593 ;;     ___lwmod
   594 ;;     _adc_value (ARG)
   595 ;;       _adc_init
   596 ;;   _temp_value
   597 ;;     _adc_init
   598 ;;     ___lwtoft
   599 ;;       ___ftpack
   600 ;;       _adc_init (ARG)
   601 ;;       ___fttol (ARG)
   602 ;;         ___ftpack (ARG)
   603 ;;         _adc_init (ARG)
   604 ;;     ___ftdiv
   605 ;;       ___ftpack
   606 ;;       ___lwtoft (ARG)
   607 ;;         ___ftpack
   608 ;;         _adc_init (ARG)
   609 ;;         ___fttol (ARG)
   610 ;;           ___ftpack (ARG)
   611 ;;           _adc_init (ARG)
   612 ;;       _adc_init (ARG)
   613 ;;       ___fttol (ARG)
   614 ;;         ___ftpack (ARG)
   615 ;;         _adc_init (ARG)
   616 ;;     ___ftmul
   617 ;;       ___ftpack
   618 ;;       ___ftdiv (ARG)
   619 ;;         ___ftpack
   620 ;;         ___lwtoft (ARG)
   621 ;;           ___ftpack
   622 ;;           _adc_init (ARG)
   623 ;;           ___fttol (ARG)
   624 ;;             ___ftpack (ARG)
   625 ;;             _adc_init (ARG)
   626 ;;         _adc_init (ARG)
   627 ;;         ___fttol (ARG)
   628 ;;           ___ftpack (ARG)
   629 ;;           _adc_init (ARG)
   630 ;;       ___lwtoft (ARG)
   631 ;;         ___ftpack
   632 ;;         _adc_init (ARG)
   633 ;;         ___fttol (ARG)
   634 ;;           ___ftpack (ARG)
   635 ;;           _adc_init (ARG)
   636 ;;       _adc_init (ARG)
   637 ;;       ___fttol (ARG)
   638 ;;         ___ftpack (ARG)
   639 ;;         _adc_init (ARG)
   640 ;;     ___fttol
   641 ;;       ___ftpack (ARG)
   642 ;;       _adc_init (ARG)
   643 ;;   _display1
   644 ;;     _lcd_cmd
   645 ;;     ___lwdiv
   646 ;;       ___lwmod (ARG)
   647 ;;     _lcd_char
   648 ;;     ___lwmod
   649 ;;     _temp_value (ARG)
   650 ;;       _adc_init
   651 ;;       ___lwtoft
   652 ;;         ___ftpack
   653 ;;         _adc_init (ARG)
   654 ;;         ___fttol (ARG)
   655 ;;           ___ftpack (ARG)
   656 ;;           _adc_init (ARG)
   657 ;;       ___ftdiv
   658 ;;         ___ftpack
   659 ;;         ___lwtoft (ARG)
   660 ;;           ___ftpack
   661 ;;           _adc_init (ARG)
   662 ;;           ___fttol (ARG)
   663 ;;             ___ftpack (ARG)
   664 ;;             _adc_init (ARG)
   665 ;;         _adc_init (ARG)
   666 ;;         ___fttol (ARG)
   667 ;;           ___ftpack (ARG)
   668 ;;           _adc_init (ARG)
   669 ;;       ___ftmul
   670 ;;         ___ftpack
   671 ;;         ___ftdiv (ARG)
   672 ;;           ___ftpack
   673 ;;           ___lwtoft (ARG)
   674 ;;             ___ftpack
   675 ;;             _adc_init (ARG)
   676 ;;             ___fttol (ARG)
   677 ;;               ___ftpack (ARG)
   678 ;;               _adc_init (ARG)
   679 ;;           _adc_init (ARG)
   680 ;;           ___fttol (ARG)
   681 ;;             ___ftpack (ARG)
   682 ;;             _adc_init (ARG)
   683 ;;         ___lwtoft (ARG)
   684 ;;           ___ftpack
   685 ;;           _adc_init (ARG)
   686 ;;           ___fttol (ARG)
   687 ;;             ___ftpack (ARG)
   688 ;;             _adc_init (ARG)
   689 ;;         _adc_init (ARG)
   690 ;;         ___fttol (ARG)
   691 ;;           ___ftpack (ARG)
   692 ;;           _adc_init (ARG)
   693 ;;       ___fttol
   694 ;;         ___ftpack (ARG)
   695 ;;         _adc_init (ARG)
   696 ;;
   697                           
   698 ;; Address spaces:
   699                           
   700 ;;Name               Size   Autos  Total    Cost      Usage
   701 ;;BANK3               60      0       0       9        0.0%
   702 ;;BITBANK3            60      0       0       8        0.0%
   703 ;;SFR3                 0      0       0       4        0.0%
   704 ;;BITSFR3              0      0       0       4        0.0%
   705 ;;BANK2               60      0       0      11        0.0%
   706 ;;BITBANK2            60      0       0      10        0.0%
   707 ;;SFR2                 0      0       0       5        0.0%
   708 ;;BITSFR2              0      0       0       5        0.0%
   709 ;;SFR1                 0      0       0       2        0.0%
   710 ;;BITSFR1              0      0       0       2        0.0%
   711 ;;BANK1               50      0       0       7        0.0%
   712 ;;BITBANK1            50      0       0       6        0.0%
   713 ;;CODE                 0      0       0       0        0.0%
   714 ;;DATA                 0      0      59      12        0.0%
   715 ;;ABS                  0      0      56       3        0.0%
   716 ;;NULL                 0      0       0       0        0.0%
   717 ;;STACK                0      0       3       2        0.0%
   718 ;;BANK0               50     3F      48       5       90.0%
   719 ;;BITBANK0            50      0       0       4        0.0%
   720 ;;SFR0                 0      0       0       1        0.0%
   721 ;;BITSFR0              0      0       0       1        0.0%
   722 ;;COMMON               E      E       E       1      100.0%
   723 ;;BITCOMMON            E      0       0       0        0.0%
   724 ;;EEDATA             100      0       0       0        0.0%
   725                           
   726                           	global	_main
   727                           psect	maintext,global,class=CODE,delta=2
   728                           global __pmaintext
   729  03C2                     __pmaintext:
   730                           
   731 ;; *************** function _main *****************
   732 ;; Defined at:
   733 ;;		line 18 in file "../../app/inc/..\..\platform\..\core\drv\adc\inc\adc_driver.h"
   734 ;; Parameters:    Size  Location     Type
   735 ;;		None
   736 ;; Auto vars:     Size  Location     Type
   737 ;;  a               9   54[BANK0 ] unsigned char [9]
   738 ;; Return value:  Size  Location     Type
   739 ;;		None               void
   740 ;; Registers used:
   741 ;;		wreg, fsr0l, fsr0h, status,2, status,0, btemp+0, btemp+1, pclath, cstack
   742 ;; Tracked objects:
   743 ;;		On entry : 17F/0
   744 ;;		On exit  : 0/0
   745 ;;		Unchanged: 0/0
   746 ;; Data sizes:     COMMON   BANK0   BANK1   BANK3   BANK2
   747 ;;      Params:         0       0       0       0       0
   748 ;;      Locals:         0       9       0       0       0
   749 ;;      Temps:          0       4       0       0       0
   750 ;;      Totals:         0      13       0       0       0
   751 ;;Total ram usage:       13 bytes
   752 ;; Hardware stack levels required when called:    3
   753 ;; This function calls:
   754 ;;		_lcd_init
   755 ;;		_lcd_cmd
   756 ;;		_lcd_string
   757 ;;		_adc_value
   758 ;;		_display
   759 ;;		_temp_value
   760 ;;		_display1
   761 ;; This function is called by:
   762 ;;		Startup code after reset
   763 ;; This function uses a non-reentrant model
   764 ;;
   765                           psect	maintext
   766                           	file	"../../app/inc/..\..\platform\..\core\drv\adc\inc\adc_driver.h"
   767                           	line	18
   768                           	global	__size_of_main
   769  006C                     	__size_of_main	equ	__end_of_main-_main
   770                           	
   771  03C2                     _main:	
   772                           	opt	stack 8
   773                           ; Regs used in _main: [wreg-fsr0h+status,2-btemp+1+pclath+cstack]
   774                           	line	20
   775                           	
   776  03C2                     l3688:	
   777                           ;..\..\platform\..\core\drv\adc\inc\adc_driver.h: 20: lcd_init();
   778  03C2  120A  118A  226C   	fcall	_lcd_init
              120A  118A         
   779                           	line	22
   780                           ;..\..\platform\..\core\drv\adc\inc\adc_driver.h: 22: lcd_cmd(0X80);
   781  03C7  3080               	movlw	(080h)
   782  03C8  120A  118A  2228   	fcall	_lcd_cmd
              120A  118A         
   783                           	line	24
   784                           	
   785  03CD                     l3690:	
   786                           ;..\..\platform\..\core\drv\adc\inc\adc_driver.h: 24: unsigned char a[]="pot val:";
   787  03CD  3056               	movlw	(main@a)&0ffh
   788  03CE  0084               	movwf	fsr0
   789  03CF  305F               	movlw	low(main@F569)
   790  03D0  1283               	bcf	status, 5	;RP0=0, select bank0
   791  03D1  1303               	bcf	status, 6	;RP1=0, select bank0
   792  03D2  00D2               	movwf	(??_main+0)+0
   793  03D3  0804               	movf	fsr0,w
   794  03D4  00D3               	movwf	((??_main+0)+0+1)
   795  03D5  3009               	movlw	9
   796  03D6  00D4               	movwf	((??_main+0)+0+2)
   797  03D7                     u3150:
   798  03D7  0852               	movf	(??_main+0)+0,w
   799  03D8  0084               	movwf	fsr0
   800  03D9  1383               	bcf	status, 7	;select IRP bank0
   801                           	
   802  03DA  0800               	movf	indf,w
   803  03DB  00D5               	movwf	((??_main+0)+0+3)
   804  03DC  0AD2               	incf	(??_main+0)+0,f
   805  03DD  0853               	movf	((??_main+0)+0+1),w
   806  03DE  0084               	movwf	fsr0
   807                           	
   808  03DF  0855               	movf	((??_main+0)+0+3),w
   809  03E0  0080               	movwf	indf
   810  03E1  0AD3               	incf	((??_main+0)+0+1),f
   811  03E2  0BD4               	decfsz	((??_main+0)+0+2),f
   812  03E3  2BD7               	goto	u3150
   813                           	line	26
   814                           	
   815  03E4                     l3692:	
   816                           ;..\..\platform\..\core\drv\adc\inc\adc_driver.h: 26: lcd_string(a);
   817  03E4  3056               	movlw	(main@a&0ffh)
   818  03E5  00F2               	movwf	(?_lcd_string)
   819  03E6  3000               	movlw	(0x0/2)
   820  03E7  00F3               	movwf	(?_lcd_string+1)
   821  03E8  120A  118A  228D   	fcall	_lcd_string
              120A  118A         
   822                           	line	28
   823                           	
   824  03ED                     l3694:	
   825                           ;..\..\platform\..\core\drv\adc\inc\adc_driver.h: 28: lcd_cmd(0xc0);
   826  03ED  30C0               	movlw	(0C0h)
   827  03EE  120A  118A  2228   	fcall	_lcd_cmd
              120A  118A         
   828                           	line	30
   829                           	
   830  03F3                     l3696:	
   831                           ;..\..\platform\..\core\drv\adc\inc\adc_driver.h: 30: lcd_string("temp val:");
   832  03F3  3001               	movlw	low((STR_1-__stringbase))
   833  03F4  00F2               	movwf	(?_lcd_string)
   834  03F5  3080               	movlw	80h
   835  03F6  00F3               	movwf	(?_lcd_string+1)
   836  03F7  120A  118A  228D   	fcall	_lcd_string
              120A  118A         
   837                           	line	33
   838                           ;..\..\platform\..\core\drv\adc\inc\adc_driver.h: 33: while(1)
   839                           	
   840  03FC                     l1151:	
   841                           	line	36
   842                           	
   843  03FC                     l3698:	
   844                           ;..\..\platform\..\core\drv\adc\inc\adc_driver.h: 34: {
   845                           ;..\..\platform\..\core\drv\adc\inc\adc_driver.h: 36: display(adc_value(0),0x8a);
   846  03FC  3000               	movlw	(0)
   847  03FD  120A  118A  21F7   	fcall	_adc_value
              120A  118A         
   848  0402  0878               	movf	(1+(?_adc_value)),w
   849  0403  1283               	bcf	status, 5	;RP0=0, select bank0
   850  0404  1303               	bcf	status, 6	;RP1=0, select bank0
   851  0405  01A1               	clrf	(?_display+1)
   852  0406  07A1               	addwf	(?_display+1)
   853  0407  0877               	movf	(0+(?_adc_value)),w
   854  0408  01A0               	clrf	(?_display)
   855  0409  07A0               	addwf	(?_display)
   856                           
   857  040A  308A               	movlw	(08Ah)
   858  040B  00D2               	movwf	(??_main+0)+0
   859  040C  0852               	movf	(??_main+0)+0,w
   860  040D  00A2               	movwf	0+(?_display)+02h
   861  040E  120A  118A  24A3   	fcall	_display
              120A  118A         
   862                           	line	38
   863                           	
   864  0413                     l3700:	
   865                           ;..\..\platform\..\core\drv\adc\inc\adc_driver.h: 38: display1(temp_value(1),0xca);
   866  0413  3001               	movlw	(01h)
   867  0414  120A  118A  2372   	fcall	_temp_value
              120A  118A         
   868  0419  1283               	bcf	status, 5	;RP0=0, select bank0
   869  041A  1303               	bcf	status, 6	;RP1=0, select bank0
   870  041B  084E               	movf	(1+(?_temp_value)),w
   871  041C  01D0               	clrf	(?_display1+1)
   872  041D  07D0               	addwf	(?_display1+1)
   873  041E  084D               	movf	(0+(?_temp_value)),w
   874  041F  01CF               	clrf	(?_display1)
   875  0420  07CF               	addwf	(?_display1)
   876                           
   877  0421  30CA               	movlw	(0CAh)
   878  0422  00D2               	movwf	(??_main+0)+0
   879  0423  0852               	movf	(??_main+0)+0,w
   880  0424  00D1               	movwf	0+(?_display1)+02h
   881  0425  120A  118A  252A   	fcall	_display1
              120A  118A         
   882                           	line	41
   883                           	
   884  042A                     l1152:	
   885                           	line	33
   886  042A  2BFC               	goto	l1151
   887                           	
   888  042B                     l1153:	
   889                           	line	43
   890                           	
   891  042B                     l1154:	
   892                           	global	start
   893  042B  120A  118A  2800   	ljmp	start
   894                           	opt stack 0
   895                           GLOBAL	__end_of_main
   896  042E                     	__end_of_main:
   897 ;; =============== function _main ends ============
   898                           
   899                           	signat	_main,88
   900                           	global	_display1
   901                           psect	text358,local,class=CODE,delta=2
   902                           global __ptext358
   903  052A                     __ptext358:
   904                           
   905 ;; *************** function _display1 *****************
   906 ;; Defined at:
   907 ;;		line 59 in file "../../app/inc/..\..\platform\..\core\drv\adc\inc\adc_driver.h"
   908 ;; Parameters:    Size  Location     Type
   909 ;;  value           2   47[BANK0 ] unsigned short 
   910 ;;  location        1   49[BANK0 ] unsigned char 
   911 ;; Auto vars:     Size  Location     Type
   912 ;;		None
   913 ;; Return value:  Size  Location     Type
   914 ;;		None               void
   915 ;; Registers used:
   916 ;;		wreg, status,2, status,0, pclath, cstack
   917 ;; Tracked objects:
   918 ;;		On entry : 0/0
   919 ;;		On exit  : 0/0
   920 ;;		Unchanged: 0/0
   921 ;; Data sizes:     COMMON   BANK0   BANK1   BANK3   BANK2
   922 ;;      Params:         0       3       0       0       0
   923 ;;      Locals:         0       0       0       0       0
   924 ;;      Temps:          0       0       0       0       0
   925 ;;      Totals:         0       3       0       0       0
   926 ;;Total ram usage:        3 bytes
   927 ;; Hardware stack levels used:    1
   928 ;; Hardware stack levels required when called:    1
   929 ;; This function calls:
   930 ;;		_lcd_cmd
   931 ;;		___lwdiv
   932 ;;		_lcd_char
   933 ;;		___lwmod
   934 ;; This function is called by:
   935 ;;		_main
   936 ;; This function uses a non-reentrant model
   937 ;;
   938                           psect	text358
   939                           	file	"../../app/inc/..\..\platform\..\core\drv\adc\inc\adc_driver.h"
   940                           	line	59
   941                           	global	__size_of_display1
   942  0093                     	__size_of_display1	equ	__end_of_display1-_display1
   943                           	
   944  052A                     _display1:	
   945                           	opt	stack 7
   946                           ; Regs used in _display1: [wreg+status,2+status,0+pclath+cstack]
   947                           	line	60
   948                           	
   949  052A                     l3686:	
   950                           ;..\..\platform\..\core\drv\adc\inc\adc_driver.h: 60: lcd_cmd(location);
   951  052A  1283               	bcf	status, 5	;RP0=0, select bank0
   952  052B  1303               	bcf	status, 6	;RP1=0, select bank0
   953  052C  0851               	movf	(display1@location),w
   954  052D  120A  118A  2228   	fcall	_lcd_cmd
              120A  118A         
   955                           	line	61
   956                           ;..\..\platform\..\core\drv\adc\inc\adc_driver.h: 61: lcd_char((value/1000)+0x30);
   957  0532  30E8               	movlw	low(03E8h)
   958  0533  00F6               	movwf	(?___lwdiv)
   959  0534  3003               	movlw	high(03E8h)
   960  0535  00F7               	movwf	((?___lwdiv))+1
   961  0536  1283               	bcf	status, 5	;RP0=0, select bank0
   962  0537  1303               	bcf	status, 6	;RP1=0, select bank0
   963  0538  0850               	movf	(display1@value+1),w
   964  0539  01F9               	clrf	1+(?___lwdiv)+02h
   965  053A  07F9               	addwf	1+(?___lwdiv)+02h
   966  053B  084F               	movf	(display1@value),w
   967  053C  01F8               	clrf	0+(?___lwdiv)+02h
   968  053D  07F8               	addwf	0+(?___lwdiv)+02h
   969                           
   970  053E  120A  118A  2329   	fcall	___lwdiv
              120A  118A         
   971  0543  0876               	movf	(0+(?___lwdiv)),w
   972  0544  3E30               	addlw	030h
   973  0545  120A  118A  223B   	fcall	_lcd_char
              120A  118A         
   974                           	line	62
   975                           ;..\..\platform\..\core\drv\adc\inc\adc_driver.h: 62: lcd_char(((value%1000)/100)+0x30);
   976  054A  3064               	movlw	low(064h)
   977  054B  00F6               	movwf	(?___lwdiv)
   978  054C  3000               	movlw	high(064h)
   979  054D  00F7               	movwf	((?___lwdiv))+1
   980  054E  1283               	bcf	status, 5	;RP0=0, select bank0
   981  054F  1303               	bcf	status, 6	;RP1=0, select bank0
   982  0550  0850               	movf	(display1@value+1),w
   983  0551  01F3               	clrf	1+(?___lwmod)+02h
   984  0552  07F3               	addwf	1+(?___lwmod)+02h
   985  0553  084F               	movf	(display1@value),w
   986  0554  01F2               	clrf	0+(?___lwmod)+02h
   987  0555  07F2               	addwf	0+(?___lwmod)+02h
   988                           
   989  0556  30E8               	movlw	low(03E8h)
   990  0557  00F0               	movwf	(?___lwmod)
   991  0558  3003               	movlw	high(03E8h)
   992  0559  00F1               	movwf	((?___lwmod))+1
   993  055A  120A  118A  22EC   	fcall	___lwmod
              120A  118A         
   994  055F  0871               	movf	(1+(?___lwmod)),w
   995  0560  01F9               	clrf	1+(?___lwdiv)+02h
   996  0561  07F9               	addwf	1+(?___lwdiv)+02h
   997  0562  0870               	movf	(0+(?___lwmod)),w
   998  0563  01F8               	clrf	0+(?___lwdiv)+02h
   999  0564  07F8               	addwf	0+(?___lwdiv)+02h
  1000                           
  1001  0565  120A  118A  2329   	fcall	___lwdiv
              120A  118A         
  1002  056A  0876               	movf	(0+(?___lwdiv)),w
  1003  056B  3E30               	addlw	030h
  1004  056C  120A  118A  223B   	fcall	_lcd_char
              120A  118A         
  1005                           	line	63
  1006                           ;..\..\platform\..\core\drv\adc\inc\adc_driver.h: 63: lcd_char('.');
  1007  0571  302E               	movlw	(02Eh)
  1008  0572  120A  118A  223B   	fcall	_lcd_char
              120A  118A         
  1009                           	line	64
  1010                           ;..\..\platform\..\core\drv\adc\inc\adc_driver.h: 64: lcd_char(((value%100)/10)+0x30);
  1011  0577  300A               	movlw	low(0Ah)
  1012  0578  00F6               	movwf	(?___lwdiv)
  1013  0579  3000               	movlw	high(0Ah)
  1014  057A  00F7               	movwf	((?___lwdiv))+1
  1015  057B  1283               	bcf	status, 5	;RP0=0, select bank0
  1016  057C  1303               	bcf	status, 6	;RP1=0, select bank0
  1017  057D  0850               	movf	(display1@value+1),w
  1018  057E  01F3               	clrf	1+(?___lwmod)+02h
  1019  057F  07F3               	addwf	1+(?___lwmod)+02h
  1020  0580  084F               	movf	(display1@value),w
  1021  0581  01F2               	clrf	0+(?___lwmod)+02h
  1022  0582  07F2               	addwf	0+(?___lwmod)+02h
  1023                           
  1024  0583  3064               	movlw	low(064h)
  1025  0584  00F0               	movwf	(?___lwmod)
  1026  0585  3000               	movlw	high(064h)
  1027  0586  00F1               	movwf	((?___lwmod))+1
  1028  0587  120A  118A  22EC   	fcall	___lwmod
              120A  118A         
  1029  058C  0871               	movf	(1+(?___lwmod)),w
  1030  058D  01F9               	clrf	1+(?___lwdiv)+02h
  1031  058E  07F9               	addwf	1+(?___lwdiv)+02h
  1032  058F  0870               	movf	(0+(?___lwmod)),w
  1033  0590  01F8               	clrf	0+(?___lwdiv)+02h
  1034  0591  07F8               	addwf	0+(?___lwdiv)+02h
  1035                           
  1036  0592  120A  118A  2329   	fcall	___lwdiv
              120A  118A         
  1037  0597  0876               	movf	(0+(?___lwdiv)),w
  1038  0598  3E30               	addlw	030h
  1039  0599  120A  118A  223B   	fcall	_lcd_char
              120A  118A         
  1040                           	line	65
  1041                           ;..\..\platform\..\core\drv\adc\inc\adc_driver.h: 65: lcd_char((value%10)+0x30);
  1042  059E  300A               	movlw	low(0Ah)
  1043  059F  00F0               	movwf	(?___lwmod)
  1044  05A0  3000               	movlw	high(0Ah)
  1045  05A1  00F1               	movwf	((?___lwmod))+1
  1046  05A2  1283               	bcf	status, 5	;RP0=0, select bank0
  1047  05A3  1303               	bcf	status, 6	;RP1=0, select bank0
  1048  05A4  0850               	movf	(display1@value+1),w
  1049  05A5  01F3               	clrf	1+(?___lwmod)+02h
  1050  05A6  07F3               	addwf	1+(?___lwmod)+02h
  1051  05A7  084F               	movf	(display1@value),w
  1052  05A8  01F2               	clrf	0+(?___lwmod)+02h
  1053  05A9  07F2               	addwf	0+(?___lwmod)+02h
  1054                           
  1055  05AA  120A  118A  22EC   	fcall	___lwmod
              120A  118A         
  1056  05AF  0870               	movf	(0+(?___lwmod)),w
  1057  05B0  3E30               	addlw	030h
  1058  05B1  120A  118A  223B   	fcall	_lcd_char
              120A  118A         
  1059                           	line	67
  1060                           ;..\..\platform\..\core\drv\adc\inc\adc_driver.h: 67: lcd_char('c');
  1061  05B6  3063               	movlw	(063h)
  1062  05B7  120A  118A  223B   	fcall	_lcd_char
              120A  118A         
  1063                           	line	68
  1064                           	
  1065  05BC                     l1160:	
  1066  05BC  0008               	return
  1067                           	opt stack 0
  1068                           GLOBAL	__end_of_display1
  1069  05BD                     	__end_of_display1:
  1070 ;; =============== function _display1 ends ============
  1071                           
  1072                           	signat	_display1,8312
  1073                           	global	_display
  1074                           psect	text359,local,class=CODE,delta=2
  1075                           global __ptext359
  1076  04A3                     __ptext359:
  1077                           
  1078 ;; *************** function _display *****************
  1079 ;; Defined at:
  1080 ;;		line 47 in file "../../app/inc/..\..\platform\..\core\drv\adc\inc\adc_driver.h"
  1081 ;; Parameters:    Size  Location     Type
  1082 ;;  value           2    0[BANK0 ] unsigned short 
  1083 ;;  location        1    2[BANK0 ] unsigned char 
  1084 ;; Auto vars:     Size  Location     Type
  1085 ;;		None
  1086 ;; Return value:  Size  Location     Type
  1087 ;;		None               void
  1088 ;; Registers used:
  1089 ;;		wreg, status,2, status,0, pclath, cstack
  1090 ;; Tracked objects:
  1091 ;;		On entry : 0/0
  1092 ;;		On exit  : 0/0
  1093 ;;		Unchanged: 0/0
  1094 ;; Data sizes:     COMMON   BANK0   BANK1   BANK3   BANK2
  1095 ;;      Params:         0       3       0       0       0
  1096 ;;      Locals:         0       0       0       0       0
  1097 ;;      Temps:          0       0       0       0       0
  1098 ;;      Totals:         0       3       0       0       0
  1099 ;;Total ram usage:        3 bytes
  1100 ;; Hardware stack levels used:    1
  1101 ;; Hardware stack levels required when called:    1
  1102 ;; This function calls:
  1103 ;;		_lcd_cmd
  1104 ;;		___lwdiv
  1105 ;;		_lcd_char
  1106 ;;		___lwmod
  1107 ;; This function is called by:
  1108 ;;		_main
  1109 ;; This function uses a non-reentrant model
  1110 ;;
  1111                           psect	text359
  1112                           	file	"../../app/inc/..\..\platform\..\core\drv\adc\inc\adc_driver.h"
  1113                           	line	47
  1114                           	global	__size_of_display
  1115  0087                     	__size_of_display	equ	__end_of_display-_display
  1116                           	
  1117  04A3                     _display:	
  1118                           	opt	stack 7
  1119                           ; Regs used in _display: [wreg+status,2+status,0+pclath+cstack]
  1120                           	line	48
  1121                           	
  1122  04A3                     l3684:	
  1123                           ;..\..\platform\..\core\drv\adc\inc\adc_driver.h: 48: lcd_cmd(location);
  1124  04A3  1283               	bcf	status, 5	;RP0=0, select bank0
  1125  04A4  1303               	bcf	status, 6	;RP1=0, select bank0
  1126  04A5  0822               	movf	(display@location),w
  1127  04A6  120A  118A  2228   	fcall	_lcd_cmd
              120A  118A         
  1128                           	line	49
  1129                           ;..\..\platform\..\core\drv\adc\inc\adc_driver.h: 49: lcd_char((value/1000)+0x30);
  1130  04AB  30E8               	movlw	low(03E8h)
  1131  04AC  00F6               	movwf	(?___lwdiv)
  1132  04AD  3003               	movlw	high(03E8h)
  1133  04AE  00F7               	movwf	((?___lwdiv))+1
  1134  04AF  1283               	bcf	status, 5	;RP0=0, select bank0
  1135  04B0  1303               	bcf	status, 6	;RP1=0, select bank0
  1136  04B1  0821               	movf	(display@value+1),w
  1137  04B2  01F9               	clrf	1+(?___lwdiv)+02h
  1138  04B3  07F9               	addwf	1+(?___lwdiv)+02h
  1139  04B4  0820               	movf	(display@value),w
  1140  04B5  01F8               	clrf	0+(?___lwdiv)+02h
  1141  04B6  07F8               	addwf	0+(?___lwdiv)+02h
  1142                           
  1143  04B7  120A  118A  2329   	fcall	___lwdiv
              120A  118A         
  1144  04BC  0876               	movf	(0+(?___lwdiv)),w
  1145  04BD  3E30               	addlw	030h
  1146  04BE  120A  118A  223B   	fcall	_lcd_char
              120A  118A         
  1147                           	line	50
  1148                           ;..\..\platform\..\core\drv\adc\inc\adc_driver.h: 50: lcd_char(((value%1000)/100)+0x30);
  1149  04C3  3064               	movlw	low(064h)
  1150  04C4  00F6               	movwf	(?___lwdiv)
  1151  04C5  3000               	movlw	high(064h)
  1152  04C6  00F7               	movwf	((?___lwdiv))+1
  1153  04C7  1283               	bcf	status, 5	;RP0=0, select bank0
  1154  04C8  1303               	bcf	status, 6	;RP1=0, select bank0
  1155  04C9  0821               	movf	(display@value+1),w
  1156  04CA  01F3               	clrf	1+(?___lwmod)+02h
  1157  04CB  07F3               	addwf	1+(?___lwmod)+02h
  1158  04CC  0820               	movf	(display@value),w
  1159  04CD  01F2               	clrf	0+(?___lwmod)+02h
  1160  04CE  07F2               	addwf	0+(?___lwmod)+02h
  1161                           
  1162  04CF  30E8               	movlw	low(03E8h)
  1163  04D0  00F0               	movwf	(?___lwmod)
  1164  04D1  3003               	movlw	high(03E8h)
  1165  04D2  00F1               	movwf	((?___lwmod))+1
  1166  04D3  120A  118A  22EC   	fcall	___lwmod
              120A  118A         
  1167  04D8  0871               	movf	(1+(?___lwmod)),w
  1168  04D9  01F9               	clrf	1+(?___lwdiv)+02h
  1169  04DA  07F9               	addwf	1+(?___lwdiv)+02h
  1170  04DB  0870               	movf	(0+(?___lwmod)),w
  1171  04DC  01F8               	clrf	0+(?___lwdiv)+02h
  1172  04DD  07F8               	addwf	0+(?___lwdiv)+02h
  1173                           
  1174  04DE  120A  118A  2329   	fcall	___lwdiv
              120A  118A         
  1175  04E3  0876               	movf	(0+(?___lwdiv)),w
  1176  04E4  3E30               	addlw	030h
  1177  04E5  120A  118A  223B   	fcall	_lcd_char
              120A  118A         
  1178                           	line	51
  1179                           ;..\..\platform\..\core\drv\adc\inc\adc_driver.h: 51: lcd_char(((value%100)/10)+0x30);
  1180  04EA  300A               	movlw	low(0Ah)
  1181  04EB  00F6               	movwf	(?___lwdiv)
  1182  04EC  3000               	movlw	high(0Ah)
  1183  04ED  00F7               	movwf	((?___lwdiv))+1
  1184  04EE  1283               	bcf	status, 5	;RP0=0, select bank0
  1185  04EF  1303               	bcf	status, 6	;RP1=0, select bank0
  1186  04F0  0821               	movf	(display@value+1),w
  1187  04F1  01F3               	clrf	1+(?___lwmod)+02h
  1188  04F2  07F3               	addwf	1+(?___lwmod)+02h
  1189  04F3  0820               	movf	(display@value),w
  1190  04F4  01F2               	clrf	0+(?___lwmod)+02h
  1191  04F5  07F2               	addwf	0+(?___lwmod)+02h
  1192                           
  1193  04F6  3064               	movlw	low(064h)
  1194  04F7  00F0               	movwf	(?___lwmod)
  1195  04F8  3000               	movlw	high(064h)
  1196  04F9  00F1               	movwf	((?___lwmod))+1
  1197  04FA  120A  118A  22EC   	fcall	___lwmod
              120A  118A         
  1198  04FF  0871               	movf	(1+(?___lwmod)),w
  1199  0500  01F9               	clrf	1+(?___lwdiv)+02h
  1200  0501  07F9               	addwf	1+(?___lwdiv)+02h
  1201  0502  0870               	movf	(0+(?___lwmod)),w
  1202  0503  01F8               	clrf	0+(?___lwdiv)+02h
  1203  0504  07F8               	addwf	0+(?___lwdiv)+02h
  1204                           
  1205  0505  120A  118A  2329   	fcall	___lwdiv
              120A  118A         
  1206  050A  0876               	movf	(0+(?___lwdiv)),w
  1207  050B  3E30               	addlw	030h
  1208  050C  120A  118A  223B   	fcall	_lcd_char
              120A  118A         
  1209                           	line	52
  1210                           ;..\..\platform\..\core\drv\adc\inc\adc_driver.h: 52: lcd_char((value%10)+0x30);
  1211  0511  300A               	movlw	low(0Ah)
  1212  0512  00F0               	movwf	(?___lwmod)
  1213  0513  3000               	movlw	high(0Ah)
  1214  0514  00F1               	movwf	((?___lwmod))+1
  1215  0515  1283               	bcf	status, 5	;RP0=0, select bank0
  1216  0516  1303               	bcf	status, 6	;RP1=0, select bank0
  1217  0517  0821               	movf	(display@value+1),w
  1218  0518  01F3               	clrf	1+(?___lwmod)+02h
  1219  0519  07F3               	addwf	1+(?___lwmod)+02h
  1220  051A  0820               	movf	(display@value),w
  1221  051B  01F2               	clrf	0+(?___lwmod)+02h
  1222  051C  07F2               	addwf	0+(?___lwmod)+02h
  1223                           
  1224  051D  120A  118A  22EC   	fcall	___lwmod
              120A  118A         
  1225  0522  0870               	movf	(0+(?___lwmod)),w
  1226  0523  3E30               	addlw	030h
  1227  0524  120A  118A  223B   	fcall	_lcd_char
              120A  118A         
  1228                           	line	54
  1229                           	
  1230  0529                     l1157:	
  1231  0529  0008               	return
  1232                           	opt stack 0
  1233                           GLOBAL	__end_of_display
  1234  052A                     	__end_of_display:
  1235 ;; =============== function _display ends ============
  1236                           
  1237                           	signat	_display,8312
  1238                           	global	_lcd_string
  1239                           psect	text360,local,class=CODE,delta=2
  1240                           global __ptext360
  1241  028D                     __ptext360:
  1242                           
  1243 ;; *************** function _lcd_string *****************
  1244 ;; Defined at:
  1245 ;;		line 34 in file "C:\Users\user.user-PC\Desktop\PIC-MCU\Baremetal_Code\core\drv\lcd\src\lcd_driver.c"
  1246 ;; Parameters:    Size  Location     Type
  1247 ;;  ptr             2    2[COMMON] PTR const unsigned char 
  1248 ;;		 -> STR_1(10), main@a(9), 
  1249 ;; Auto vars:     Size  Location     Type
  1250 ;;		None
  1251 ;; Return value:  Size  Location     Type
  1252 ;;		None               void
  1253 ;; Registers used:
  1254 ;;		wreg, fsr0l, fsr0h, status,2, status,0, btemp+0, btemp+1, pclath, cstack
  1255 ;; Tracked objects:
  1256 ;;		On entry : 0/0
  1257 ;;		On exit  : 0/0
  1258 ;;		Unchanged: 0/0
  1259 ;; Data sizes:     COMMON   BANK0   BANK1   BANK3   BANK2
  1260 ;;      Params:         2       0       0       0       0
  1261 ;;      Locals:         0       0       0       0       0
  1262 ;;      Temps:          0       0       0       0       0
  1263 ;;      Totals:         2       0       0       0       0
  1264 ;;Total ram usage:        2 bytes
  1265 ;; Hardware stack levels used:    1
  1266 ;; Hardware stack levels required when called:    1
  1267 ;; This function calls:
  1268 ;;		_lcd_char
  1269 ;; This function is called by:
  1270 ;;		_main
  1271 ;; This function uses a non-reentrant model
  1272 ;;
  1273                           psect	text360
  1274                           	file	"C:\Users\user.user-PC\Desktop\PIC-MCU\Baremetal_Code\core\drv\lcd\src\lcd_driver.
                                 c"
  1275                           	line	34
  1276                           	global	__size_of_lcd_string
  1277  0024                     	__size_of_lcd_string	equ	__end_of_lcd_string-_lcd_string
  1278                           	
  1279  028D                     _lcd_string:	
  1280                           	opt	stack 7
  1281                           ; Regs used in _lcd_string: [wreg-fsr0h+status,2-btemp+1+pclath+cstack]
  1282                           	line	35
  1283                           	
  1284  028D                     l3676:	
  1285                           ;lcd_driver.c: 35: while(*ptr)
  1286  028D  2AA2               	goto	l1727
  1287                           	
  1288  028E                     l1728:	
  1289                           	line	37
  1290                           	
  1291  028E                     l3678:	
  1292                           ;lcd_driver.c: 36: {
  1293                           ;lcd_driver.c: 37: lcd_char(*ptr);
  1294  028E  0873               	movf	(lcd_string@ptr+1),w
  1295  028F  00FF               	movwf	btemp+1
  1296  0290  0872               	movf	(lcd_string@ptr),w
  1297  0291  0084               	movwf	fsr0
  1298  0292  120A  118A  2003   	fcall	stringtab
              120A  118A         
  1299  0297  120A  118A  223B   	fcall	_lcd_char
              120A  118A         
  1300                           	line	38
  1301                           	
  1302  029C                     l3680:	
  1303                           ;lcd_driver.c: 38: ptr++;
  1304  029C  3001               	movlw	low(01h)
  1305  029D  07F2               	addwf	(lcd_string@ptr),f
  1306  029E  1803               	skipnc
  1307  029F  0AF3               	incf	(lcd_string@ptr+1),f
  1308  02A0  3000               	movlw	high(01h)
  1309  02A1  07F3               	addwf	(lcd_string@ptr+1),f
  1310                           	line	40
  1311                           	
  1312  02A2                     l1727:	
  1313                           	line	35
  1314                           	
  1315  02A2                     l3682:	
  1316  02A2  0873               	movf	(lcd_string@ptr+1),w
  1317  02A3  00FF               	movwf	btemp+1
  1318  02A4  0872               	movf	(lcd_string@ptr),w
  1319  02A5  0084               	movwf	fsr0
  1320  02A6  120A  118A  2003   	fcall	stringtab
              120A  118A         
  1321  02AB  3800               	iorlw	0
  1322  02AC  1D03               	skipz
  1323  02AD  2AAF               	goto	u3141
  1324  02AE  2AB0               	goto	u3140
  1325  02AF                     u3141:
  1326  02AF  2A8E               	goto	l1728
  1327  02B0                     u3140:
  1328                           	
  1329  02B0                     l1729:	
  1330                           	line	41
  1331                           	
  1332  02B0                     l1730:	
  1333  02B0  0008               	return
  1334                           	opt stack 0
  1335                           GLOBAL	__end_of_lcd_string
  1336  02B1                     	__end_of_lcd_string:
  1337 ;; =============== function _lcd_string ends ============
  1338                           
  1339                           	signat	_lcd_string,4216
  1340                           	global	_lcd_init
  1341                           psect	text361,local,class=CODE,delta=2
  1342                           global __ptext361
  1343  026C                     __ptext361:
  1344                           
  1345 ;; *************** function _lcd_init *****************
  1346 ;; Defined at:
  1347 ;;		line 44 in file "C:\Users\user.user-PC\Desktop\PIC-MCU\Baremetal_Code\core\drv\lcd\src\lcd_driver.c"
  1348 ;; Parameters:    Size  Location     Type
  1349 ;;		None
  1350 ;; Auto vars:     Size  Location     Type
  1351 ;;		None
  1352 ;; Return value:  Size  Location     Type
  1353 ;;		None               void
  1354 ;; Registers used:
  1355 ;;		wreg, status,2, status,0, pclath, cstack
  1356 ;; Tracked objects:
  1357 ;;		On entry : 0/0
  1358 ;;		On exit  : 0/0
  1359 ;;		Unchanged: 0/0
  1360 ;; Data sizes:     COMMON   BANK0   BANK1   BANK3   BANK2
  1361 ;;      Params:         0       0       0       0       0
  1362 ;;      Locals:         0       0       0       0       0
  1363 ;;      Temps:          0       0       0       0       0
  1364 ;;      Totals:         0       0       0       0       0
  1365 ;;Total ram usage:        0 bytes
  1366 ;; Hardware stack levels used:    1
  1367 ;; Hardware stack levels required when called:    1
  1368 ;; This function calls:
  1369 ;;		_lcd_cmd
  1370 ;; This function is called by:
  1371 ;;		_main
  1372 ;; This function uses a non-reentrant model
  1373 ;;
  1374                           psect	text361
  1375                           	file	"C:\Users\user.user-PC\Desktop\PIC-MCU\Baremetal_Code\core\drv\lcd\src\lcd_driver.
                                 c"
  1376                           	line	44
  1377                           	global	__size_of_lcd_init
  1378  0021                     	__size_of_lcd_init	equ	__end_of_lcd_init-_lcd_init
  1379                           	
  1380  026C                     _lcd_init:	
  1381                           	opt	stack 7
  1382                           ; Regs used in _lcd_init: [wreg+status,2+status,0+pclath+cstack]
  1383                           	line	45
  1384                           	
  1385  026C                     l3660:	
  1386                           ;lcd_driver.c: 45: ADCON1=0x02;
  1387  026C  3002               	movlw	(02h)
  1388  026D  1683               	bsf	status, 5	;RP0=1, select bank1
  1389  026E  1303               	bcf	status, 6	;RP1=0, select bank1
  1390  026F  009F               	movwf	(159)^080h	;volatile
  1391                           	line	46
  1392                           	
  1393  0270                     l3662:	
  1394                           ;lcd_driver.c: 46: TRISB=0X00;
  1395  0270  0186               	clrf	(134)^080h	;volatile
  1396                           	line	47
  1397                           	
  1398  0271                     l3664:	
  1399                           ;lcd_driver.c: 47: PORTB=0X00;
  1400  0271  1283               	bcf	status, 5	;RP0=0, select bank0
  1401  0272  1303               	bcf	status, 6	;RP1=0, select bank0
  1402  0273  0186               	clrf	(6)	;volatile
  1403                           	line	48
  1404                           	
  1405  0274                     l3666:	
  1406                           ;lcd_driver.c: 48: TRISE=0X00;
  1407  0274  1683               	bsf	status, 5	;RP0=1, select bank1
  1408  0275  1303               	bcf	status, 6	;RP1=0, select bank1
  1409  0276  0189               	clrf	(137)^080h	;volatile
  1410                           	line	49
  1411                           	
  1412  0277                     l3668:	
  1413                           ;lcd_driver.c: 49: PORTE=0X00;
  1414  0277  1283               	bcf	status, 5	;RP0=0, select bank0
  1415  0278  1303               	bcf	status, 6	;RP1=0, select bank0
  1416  0279  0189               	clrf	(9)	;volatile
  1417                           	line	51
  1418                           	
  1419  027A                     l3670:	
  1420                           ;lcd_driver.c: 51: lcd_cmd(0x0e);
  1421  027A  300E               	movlw	(0Eh)
  1422  027B  120A  118A  2228   	fcall	_lcd_cmd
              120A  118A         
  1423                           	line	52
  1424                           	
  1425  0280                     l3672:	
  1426                           ;lcd_driver.c: 52: lcd_cmd(0x01);
  1427  0280  3001               	movlw	(01h)
  1428  0281  120A  118A  2228   	fcall	_lcd_cmd
              120A  118A         
  1429                           	line	53
  1430                           	
  1431  0286                     l3674:	
  1432                           ;lcd_driver.c: 53: lcd_cmd(0x38);
  1433  0286  3038               	movlw	(038h)
  1434  0287  120A  118A  2228   	fcall	_lcd_cmd
              120A  118A         
  1435                           	line	55
  1436                           	
  1437  028C                     l1733:	
  1438  028C  0008               	return
  1439                           	opt stack 0
  1440                           GLOBAL	__end_of_lcd_init
  1441  028D                     	__end_of_lcd_init:
  1442 ;; =============== function _lcd_init ends ============
  1443                           
  1444                           	signat	_lcd_init,88
  1445                           	global	_temp_value
  1446                           psect	text362,local,class=CODE,delta=2
  1447                           global __ptext362
  1448  0372                     __ptext362:
  1449                           
  1450 ;; *************** function _temp_value *****************
  1451 ;; Defined at:
  1452 ;;		line 31 in file "../../app/inc/..\..\platform\..\core\drv\adc\inc\adc_driver.h"
  1453 ;; Parameters:    Size  Location     Type
  1454 ;;  channel         1    wreg     unsigned char 
  1455 ;; Auto vars:     Size  Location     Type
  1456 ;;  channel         1   13[COMMON] unsigned char 
  1457 ;; Return value:  Size  Location     Type
  1458 ;;                  2   45[BANK0 ] unsigned short 
  1459 ;; Registers used:
  1460 ;;		wreg, status,2, status,0, btemp+0, pclath, cstack
  1461 ;; Tracked objects:
  1462 ;;		On entry : 0/0
  1463 ;;		On exit  : 0/0
  1464 ;;		Unchanged: 0/0
  1465 ;; Data sizes:     COMMON   BANK0   BANK1   BANK3   BANK2
  1466 ;;      Params:         0       2       0       0       0
  1467 ;;      Locals:         1       0       0       0       0
  1468 ;;      Temps:          0       0       0       0       0
  1469 ;;      Totals:         1       2       0       0       0
  1470 ;;Total ram usage:        3 bytes
  1471 ;; Hardware stack levels used:    1
  1472 ;; Hardware stack levels required when called:    2
  1473 ;; This function calls:
  1474 ;;		_adc_init
  1475 ;;		___lwtoft
  1476 ;;		___ftdiv
  1477 ;;		___ftmul
  1478 ;;		___fttol
  1479 ;; This function is called by:
  1480 ;;		_main
  1481 ;; This function uses a non-reentrant model
  1482 ;;
  1483                           psect	text362
  1484                           	file	"../../app/inc/..\..\platform\..\core\drv\adc\inc\adc_driver.h"
  1485                           	line	31
  1486                           	global	__size_of_temp_value
  1487  0050                     	__size_of_temp_value	equ	__end_of_temp_value-_temp_value
  1488                           	
  1489  0372                     _temp_value:	
  1490                           	opt	stack 7
  1491                           ; Regs used in _temp_value: [wreg+status,2-btemp+0+pclath+cstack]
  1492                           ;temp_value@channel stored from wreg
  1493  0372  00FD               	movwf	(temp_value@channel)
  1494                           	line	32
  1495                           	
  1496  0373                     l3656:	
  1497                           ;..\..\platform\..\core\drv\adc\inc\adc_driver.h: 32: return ((adc_init(channel)/2.05)*1
                                 00);
  1498  0373  087D               	movf	(temp_value@channel),w
  1499  0374  120A  118A  22B1   	fcall	_adc_init
              120A  118A         
  1500  0379  0871               	movf	(1+(?_adc_init)),w
  1501  037A  1283               	bcf	status, 5	;RP0=0, select bank0
  1502  037B  1303               	bcf	status, 6	;RP1=0, select bank0
  1503  037C  01AB               	clrf	(?___lwtoft+1)
  1504  037D  07AB               	addwf	(?___lwtoft+1)
  1505  037E  0870               	movf	(0+(?_adc_init)),w
  1506  037F  01AA               	clrf	(?___lwtoft)
  1507  0380  07AA               	addwf	(?___lwtoft)
  1508                           
  1509  0381  120A  118A  224E   	fcall	___lwtoft
              120A  118A         
  1510  0386  1283               	bcf	status, 5	;RP0=0, select bank0
  1511  0387  1303               	bcf	status, 6	;RP1=0, select bank0
  1512  0388  082A               	movf	(0+(?___lwtoft)),w
  1513  0389  00B0               	movwf	0+(?___ftdiv)+03h
  1514  038A  082B               	movf	(1+(?___lwtoft)),w
  1515  038B  00B1               	movwf	1+(?___ftdiv)+03h
  1516  038C  082C               	movf	(2+(?___lwtoft)),w
  1517  038D  00B2               	movwf	2+(?___ftdiv)+03h
  1518  038E  3033               	movlw	0x33
  1519  038F  00AD               	movwf	(?___ftdiv)
  1520  0390  3003               	movlw	0x3
  1521  0391  00AE               	movwf	(?___ftdiv+1)
  1522  0392  3040               	movlw	0x40
  1523  0393  00AF               	movwf	(?___ftdiv+2)
  1524  0394  120A  118A  2659   	fcall	___ftdiv
              120A  118A         
  1525  0399  1283               	bcf	status, 5	;RP0=0, select bank0
  1526  039A  1303               	bcf	status, 6	;RP1=0, select bank0
  1527  039B  082D               	movf	(0+(?___ftdiv)),w
  1528  039C  00C0               	movwf	0+(?___ftmul)+03h
  1529  039D  082E               	movf	(1+(?___ftdiv)),w
  1530  039E  00C1               	movwf	1+(?___ftmul)+03h
  1531  039F  082F               	movf	(2+(?___ftdiv)),w
  1532  03A0  00C2               	movwf	2+(?___ftmul)+03h
  1533  03A1  3000               	movlw	0x0
  1534  03A2  00BD               	movwf	(?___ftmul)
  1535  03A3  30C8               	movlw	0xc8
  1536  03A4  00BE               	movwf	(?___ftmul+1)
  1537  03A5  3042               	movlw	0x42
  1538  03A6  00BF               	movwf	(?___ftmul+2)
  1539  03A7  120A  118A  271B   	fcall	___ftmul
              120A  118A         
  1540  03AC  1283               	bcf	status, 5	;RP0=0, select bank0
  1541  03AD  1303               	bcf	status, 6	;RP1=0, select bank0
  1542  03AE  083D               	movf	(0+(?___ftmul)),w
  1543  03AF  00F8               	movwf	(?___fttol)
  1544  03B0  083E               	movf	(1+(?___ftmul)),w
  1545  03B1  00F9               	movwf	(?___fttol+1)
  1546  03B2  083F               	movf	(2+(?___ftmul)),w
  1547  03B3  00FA               	movwf	(?___fttol+2)
  1548  03B4  120A  118A  25BD   	fcall	___fttol
              120A  118A         
  1549  03B9  0879               	movf	1+(((0+(?___fttol)))),w
  1550  03BA  1283               	bcf	status, 5	;RP0=0, select bank0
  1551  03BB  1303               	bcf	status, 6	;RP1=0, select bank0
  1552  03BC  01CE               	clrf	(?_temp_value+1)
  1553  03BD  07CE               	addwf	(?_temp_value+1)
  1554  03BE  0878               	movf	0+(((0+(?___fttol)))),w
  1555  03BF  01CD               	clrf	(?_temp_value)
  1556  03C0  07CD               	addwf	(?_temp_value)
  1557                           
  1558                           	
  1559  03C1                     l3658:	
  1560                           	line	33
  1561                           	
  1562  03C1                     l569:	
  1563  03C1  0008               	return
  1564                           	opt stack 0
  1565                           GLOBAL	__end_of_temp_value
  1566  03C2                     	__end_of_temp_value:
  1567 ;; =============== function _temp_value ends ============
  1568                           
  1569                           	signat	_temp_value,4218
  1570                           	global	___lwtoft
  1571                           psect	text363,local,class=CODE,delta=2
  1572                           global __ptext363
  1573  024E                     __ptext363:
  1574                           
  1575 ;; *************** function ___lwtoft *****************
  1576 ;; Defined at:
  1577 ;;		line 29 in file "C:\Program Files\HI-TECH Software\PICC\9.71a\sources\lwtoft.c"
  1578 ;; Parameters:    Size  Location     Type
  1579 ;;  c               2   10[BANK0 ] unsigned int 
  1580 ;; Auto vars:     Size  Location     Type
  1581 ;;		None
  1582 ;; Return value:  Size  Location     Type
  1583 ;;                  3   10[BANK0 ] float 
  1584 ;; Registers used:
  1585 ;;		wreg, status,2, status,0, pclath, cstack
  1586 ;; Tracked objects:
  1587 ;;		On entry : 0/0
  1588 ;;		On exit  : 0/0
  1589 ;;		Unchanged: 0/0
  1590 ;; Data sizes:     COMMON   BANK0   BANK1   BANK3   BANK2
  1591 ;;      Params:         0       3       0       0       0
  1592 ;;      Locals:         0       0       0       0       0
  1593 ;;      Temps:          1       0       0       0       0
  1594 ;;      Totals:         1       3       0       0       0
  1595 ;;Total ram usage:        4 bytes
  1596 ;; Hardware stack levels used:    1
  1597 ;; Hardware stack levels required when called:    1
  1598 ;; This function calls:
  1599 ;;		___ftpack
  1600 ;; This function is called by:
  1601 ;;		_temp_value
  1602 ;; This function uses a non-reentrant model
  1603 ;;
  1604                           psect	text363
  1605                           	file	"C:\Program Files\HI-TECH Software\PICC\9.71a\sources\lwtoft.c"
  1606                           	line	29
  1607                           	global	__size_of___lwtoft
  1608  001E                     	__size_of___lwtoft	equ	__end_of___lwtoft-___lwtoft
  1609                           	
  1610  024E                     ___lwtoft:	
  1611                           	opt	stack 6
  1612                           ; Regs used in ___lwtoft: [wreg+status,2+status,0+pclath+cstack]
  1613                           	line	30
  1614                           	
  1615  024E                     l3652:	
  1616  024E  1283               	bcf	status, 5	;RP0=0, select bank0
  1617  024F  1303               	bcf	status, 6	;RP1=0, select bank0
  1618  0250  082A               	movf	(___lwtoft@c),w
  1619  0251  00F0               	movwf	(?___ftpack)
  1620  0252  082B               	movf	(___lwtoft@c+1),w
  1621  0253  00F1               	movwf	(?___ftpack+1)
  1622  0254  01F2               	clrf	(?___ftpack+2)
  1623  0255  308E               	movlw	(08Eh)
  1624  0256  00FC               	movwf	(??___lwtoft+0)+0
  1625  0257  087C               	movf	(??___lwtoft+0)+0,w
  1626  0258  00F3               	movwf	0+(?___ftpack)+03h
  1627  0259  1003               	clrc
  1628  025A  3000               	movlw	0
  1629  025B  1803               	btfsc	status,0
  1630  025C  3001               	movlw	1
  1631  025D  00F4               	movwf	0+(?___ftpack)+04h
  1632  025E  120A  118A  242E   	fcall	___ftpack
              120A  118A         
  1633  0263  0870               	movf	(0+(?___ftpack)),w
  1634  0264  1283               	bcf	status, 5	;RP0=0, select bank0
  1635  0265  1303               	bcf	status, 6	;RP1=0, select bank0
  1636  0266  00AA               	movwf	(?___lwtoft)
  1637  0267  0871               	movf	(1+(?___ftpack)),w
  1638  0268  00AB               	movwf	(?___lwtoft+1)
  1639  0269  0872               	movf	(2+(?___ftpack)),w
  1640  026A  00AC               	movwf	(?___lwtoft+2)
  1641                           	
  1642  026B                     l3654:	
  1643                           	line	31
  1644                           	
  1645  026B                     l1965:	
  1646  026B  0008               	return
  1647                           	opt stack 0
  1648                           GLOBAL	__end_of___lwtoft
  1649  026C                     	__end_of___lwtoft:
  1650 ;; =============== function ___lwtoft ends ============
  1651                           
  1652                           	signat	___lwtoft,4219
  1653                           	global	___ftmul
  1654                           psect	text364,local,class=CODE,delta=2
  1655                           global __ptext364
  1656  071B                     __ptext364:
  1657                           
  1658 ;; *************** function ___ftmul *****************
  1659 ;; Defined at:
  1660 ;;		line 52 in file "C:\Program Files\HI-TECH Software\PICC\9.71a\sources\ftmul.c"
  1661 ;; Parameters:    Size  Location     Type
  1662 ;;  f1              3   29[BANK0 ] float 
  1663 ;;  f2              3   32[BANK0 ] float 
  1664 ;; Auto vars:     Size  Location     Type
  1665 ;;  f3_as_produc    3   40[BANK0 ] unsigned um
  1666 ;;  sign            1   44[BANK0 ] unsigned char 
  1667 ;;  cntr            1   43[BANK0 ] unsigned char 
  1668 ;;  exp             1   39[BANK0 ] unsigned char 
  1669 ;; Return value:  Size  Location     Type
  1670 ;;                  3   29[BANK0 ] float 
  1671 ;; Registers used:
  1672 ;;		wreg, status,2, status,0, pclath, cstack
  1673 ;; Tracked objects:
  1674 ;;		On entry : 0/0
  1675 ;;		On exit  : 0/0
  1676 ;;		Unchanged: 0/0
  1677 ;; Data sizes:     COMMON   BANK0   BANK1   BANK3   BANK2
  1678 ;;      Params:         0       6       0       0       0
  1679 ;;      Locals:         0       6       0       0       0
  1680 ;;      Temps:          0       4       0       0       0
  1681 ;;      Totals:         0      16       0       0       0
  1682 ;;Total ram usage:       16 bytes
  1683 ;; Hardware stack levels used:    1
  1684 ;; Hardware stack levels required when called:    1
  1685 ;; This function calls:
  1686 ;;		___ftpack
  1687 ;; This function is called by:
  1688 ;;		_temp_value
  1689 ;; This function uses a non-reentrant model
  1690 ;;
  1691                           psect	text364
  1692                           	file	"C:\Program Files\HI-TECH Software\PICC\9.71a\sources\ftmul.c"
  1693                           	line	52
  1694                           	global	__size_of___ftmul
  1695  00E5                     	__size_of___ftmul	equ	__end_of___ftmul-___ftmul
  1696                           	
  1697  071B                     ___ftmul:	
  1698                           	opt	stack 6
  1699                           ; Regs used in ___ftmul: [wreg+status,2+status,0+pclath+cstack]
  1700                           	line	56
  1701                           	
  1702  071B                     l3602:	
  1703  071B  1283               	bcf	status, 5	;RP0=0, select bank0
  1704  071C  1303               	bcf	status, 6	;RP1=0, select bank0
  1705  071D  083D               	movf	(___ftmul@f1),w
  1706  071E  00C3               	movwf	((??___ftmul+0)+0)
  1707  071F  083E               	movf	(___ftmul@f1+1),w
  1708  0720  00C4               	movwf	((??___ftmul+0)+0+1)
  1709  0721  083F               	movf	(___ftmul@f1+2),w
  1710  0722  00C5               	movwf	((??___ftmul+0)+0+2)
  1711  0723  1003               	clrc
  1712  0724  0D44               	rlf	(??___ftmul+0)+1,w
  1713  0725  0D45               	rlf	(??___ftmul+0)+2,w
  1714  0726  00C6               	movwf	(??___ftmul+3)+0
  1715  0727  0846               	movf	(??___ftmul+3)+0,w
  1716  0728  00C7               	movwf	(___ftmul@exp)
  1717  0729  08C7               	movf	((___ftmul@exp)),f
  1718  072A  1D03               	skipz
  1719  072B  2F2D               	goto	u3001
  1720  072C  2F2E               	goto	u3000
  1721  072D                     u3001:
  1722  072D  2F35               	goto	l1840
  1723  072E                     u3000:
  1724                           	line	57
  1725                           	
  1726  072E                     l3604:	
  1727  072E  3000               	movlw	0x0
  1728  072F  00BD               	movwf	(?___ftmul)
  1729  0730  3000               	movlw	0x0
  1730  0731  00BE               	movwf	(?___ftmul+1)
  1731  0732  3000               	movlw	0x0
  1732  0733  00BF               	movwf	(?___ftmul+2)
  1733                           	
  1734  0734                     l3606:	
  1735  0734  2FFF               	goto	l1841
  1736                           	
  1737  0735                     l1840:	
  1738                           	line	58
  1739                           	
  1740  0735                     l3608:	
  1741  0735  0840               	movf	(___ftmul@f2),w
  1742  0736  00C3               	movwf	((??___ftmul+0)+0)
  1743  0737  0841               	movf	(___ftmul@f2+1),w
  1744  0738  00C4               	movwf	((??___ftmul+0)+0+1)
  1745  0739  0842               	movf	(___ftmul@f2+2),w
  1746  073A  00C5               	movwf	((??___ftmul+0)+0+2)
  1747  073B  1003               	clrc
  1748  073C  0D44               	rlf	(??___ftmul+0)+1,w
  1749  073D  0D45               	rlf	(??___ftmul+0)+2,w
  1750  073E  00C6               	movwf	(??___ftmul+3)+0
  1751  073F  0846               	movf	(??___ftmul+3)+0,w
  1752  0740  00CC               	movwf	(___ftmul@sign)
  1753  0741  08CC               	movf	((___ftmul@sign)),f
  1754  0742  1D03               	skipz
  1755  0743  2F45               	goto	u3011
  1756  0744  2F46               	goto	u3010
  1757  0745                     u3011:
  1758  0745  2F4D               	goto	l1842
  1759  0746                     u3010:
  1760                           	line	59
  1761                           	
  1762  0746                     l3610:	
  1763  0746  3000               	movlw	0x0
  1764  0747  00BD               	movwf	(?___ftmul)
  1765  0748  3000               	movlw	0x0
  1766  0749  00BE               	movwf	(?___ftmul+1)
  1767  074A  3000               	movlw	0x0
  1768  074B  00BF               	movwf	(?___ftmul+2)
  1769                           	
  1770  074C                     l3612:	
  1771  074C  2FFF               	goto	l1841
  1772                           	
  1773  074D                     l1842:	
  1774                           	line	60
  1775                           	
  1776  074D                     l3614:	
  1777  074D  084C               	movf	(___ftmul@sign),w
  1778  074E  3E7B               	addlw	07Bh
  1779  074F  00C3               	movwf	(??___ftmul+0)+0
  1780  0750  0843               	movf	(??___ftmul+0)+0,w
  1781  0751  07C7               	addwf	(___ftmul@exp),f
  1782                           	line	61
  1783  0752  083D               	movf	(___ftmul@f1),w
  1784  0753  00C3               	movwf	((??___ftmul+0)+0)
  1785  0754  083E               	movf	(___ftmul@f1+1),w
  1786  0755  00C4               	movwf	((??___ftmul+0)+0+1)
  1787  0756  083F               	movf	(___ftmul@f1+2),w
  1788  0757  00C5               	movwf	((??___ftmul+0)+0+2)
  1789  0758  3010               	movlw	010h
  1790  0759                     u3025:
  1791  0759  1003               	clrc
  1792  075A  0CC5               	rrf	(??___ftmul+0)+2,f
  1793  075B  0CC4               	rrf	(??___ftmul+0)+1,f
  1794  075C  0CC3               	rrf	(??___ftmul+0)+0,f
  1795  075D                     u3020:
  1796  075D  3EFF               	addlw	-1
  1797  075E  1D03               	skipz
  1798  075F  2F59               	goto	u3025
  1799  0760  0843               	movf	0+(??___ftmul+0)+0,w
  1800  0761  00C6               	movwf	(??___ftmul+3)+0
  1801  0762  0846               	movf	(??___ftmul+3)+0,w
  1802  0763  00CC               	movwf	(___ftmul@sign)
  1803                           	line	62
  1804  0764  0840               	movf	(___ftmul@f2),w
  1805  0765  00C3               	movwf	((??___ftmul+0)+0)
  1806  0766  0841               	movf	(___ftmul@f2+1),w
  1807  0767  00C4               	movwf	((??___ftmul+0)+0+1)
  1808  0768  0842               	movf	(___ftmul@f2+2),w
  1809  0769  00C5               	movwf	((??___ftmul+0)+0+2)
  1810  076A  3010               	movlw	010h
  1811  076B                     u3035:
  1812  076B  1003               	clrc
  1813  076C  0CC5               	rrf	(??___ftmul+0)+2,f
  1814  076D  0CC4               	rrf	(??___ftmul+0)+1,f
  1815  076E  0CC3               	rrf	(??___ftmul+0)+0,f
  1816  076F                     u3030:
  1817  076F  3EFF               	addlw	-1
  1818  0770  1D03               	skipz
  1819  0771  2F6B               	goto	u3035
  1820  0772  0843               	movf	0+(??___ftmul+0)+0,w
  1821  0773  00C6               	movwf	(??___ftmul+3)+0
  1822  0774  0846               	movf	(??___ftmul+3)+0,w
  1823  0775  06CC               	xorwf	(___ftmul@sign),f
  1824                           	line	63
  1825  0776  3080               	movlw	(080h)
  1826  0777  00C3               	movwf	(??___ftmul+0)+0
  1827  0778  0843               	movf	(??___ftmul+0)+0,w
  1828  0779  05CC               	andwf	(___ftmul@sign),f
  1829                           	line	64
  1830                           	
  1831  077A                     l3616:	
  1832  077A  17BE               	bsf	(___ftmul@f1)+(15/8),(15)&7
  1833                           	line	66
  1834                           	
  1835  077B                     l3618:	
  1836  077B  17C1               	bsf	(___ftmul@f2)+(15/8),(15)&7
  1837                           	line	67
  1838                           	
  1839  077C                     l3620:	
  1840  077C  30FF               	movlw	0FFh
  1841  077D  05C0               	andwf	(___ftmul@f2),f
  1842  077E  30FF               	movlw	0FFh
  1843  077F  05C1               	andwf	(___ftmul@f2+1),f
  1844  0780  3000               	movlw	0
  1845  0781  05C2               	andwf	(___ftmul@f2+2),f
  1846                           	line	68
  1847                           	
  1848  0782                     l3622:	
  1849  0782  3000               	movlw	0
  1850  0783  00C8               	movwf	(___ftmul@f3_as_product)
  1851  0784  3000               	movlw	0
  1852  0785  00C9               	movwf	(___ftmul@f3_as_product+1)
  1853  0786  3000               	movlw	0
  1854  0787  00CA               	movwf	(___ftmul@f3_as_product+2)
  1855                           	line	69
  1856                           	
  1857  0788                     l3624:	
  1858  0788  3007               	movlw	(07h)
  1859  0789  00C3               	movwf	(??___ftmul+0)+0
  1860  078A  0843               	movf	(??___ftmul+0)+0,w
  1861  078B  00CB               	movwf	(___ftmul@cntr)
  1862                           	line	70
  1863                           	
  1864  078C                     l1843:	
  1865                           	line	71
  1866                           	
  1867  078C                     l3626:	
  1868  078C  1C3D               	btfss	(___ftmul@f1),(0)&7
  1869  078D  2F8F               	goto	u3041
  1870  078E  2F90               	goto	u3040
  1871  078F                     u3041:
  1872  078F  2FA0               	goto	l1844
  1873  0790                     u3040:
  1874                           	line	72
  1875                           	
  1876  0790                     l3628:	
  1877  0790  0840               	movf	(___ftmul@f2),w
  1878  0791  07C8               	addwf	(___ftmul@f3_as_product),f
  1879  0792  0841               	movf	(___ftmul@f2+1),w
  1880  0793  1103               	clrz
  1881  0794  1803               	skipnc
  1882  0795  0A41               	incf	(___ftmul@f2+1),w
  1883  0796  1903               	skipnz
  1884  0797  2F99               	goto	u3051
  1885  0798  07C9               	addwf	(___ftmul@f3_as_product+1),f
  1886  0799                     u3051:
  1887  0799  0842               	movf	(___ftmul@f2+2),w
  1888  079A  1103               	clrz
  1889  079B  1803               	skipnc
  1890  079C  0A42               	incf	(___ftmul@f2+2),w
  1891  079D  1903               	skipnz
  1892  079E  2FA0               	goto	u3052
  1893  079F  07CA               	addwf	(___ftmul@f3_as_product+2),f
  1894  07A0                     u3052:
  1895                           
  1896                           	
  1897  07A0                     l1844:	
  1898                           	line	73
  1899                           	
  1900  07A0                     l3630:	
  1901  07A0  3001               	movlw	01h
  1902  07A1                     u3065:
  1903  07A1  1003               	clrc
  1904  07A2  0CBF               	rrf	(___ftmul@f1+2),f
  1905  07A3  0CBE               	rrf	(___ftmul@f1+1),f
  1906  07A4  0CBD               	rrf	(___ftmul@f1),f
  1907  07A5  3EFF               	addlw	-1
  1908  07A6  1D03               	skipz
  1909  07A7  2FA1               	goto	u3065
  1910                           
  1911                           	line	74
  1912                           	
  1913  07A8                     l3632:	
  1914  07A8  3001               	movlw	01h
  1915  07A9                     u3075:
  1916  07A9  1003               	clrc
  1917  07AA  0DC0               	rlf	(___ftmul@f2),f
  1918  07AB  0DC1               	rlf	(___ftmul@f2+1),f
  1919  07AC  0DC2               	rlf	(___ftmul@f2+2),f
  1920  07AD  3EFF               	addlw	-1
  1921  07AE  1D03               	skipz
  1922  07AF  2FA9               	goto	u3075
  1923                           	line	75
  1924                           	
  1925  07B0                     l3634:	
  1926  07B0  3001               	movlw	low(01h)
  1927  07B1  02CB               	subwf	(___ftmul@cntr),f
  1928  07B2  1D03               	btfss	status,2
  1929  07B3  2FB5               	goto	u3081
  1930  07B4  2FB6               	goto	u3080
  1931  07B5                     u3081:
  1932  07B5  2F8C               	goto	l1843
  1933  07B6                     u3080:
  1934                           	
  1935  07B6                     l1845:	
  1936                           	line	76
  1937                           	
  1938  07B6                     l3636:	
  1939  07B6  3009               	movlw	(09h)
  1940  07B7  00C3               	movwf	(??___ftmul+0)+0
  1941  07B8  0843               	movf	(??___ftmul+0)+0,w
  1942  07B9  00CB               	movwf	(___ftmul@cntr)
  1943                           	line	77
  1944                           	
  1945  07BA                     l1846:	
  1946                           	line	78
  1947                           	
  1948  07BA                     l3638:	
  1949  07BA  1C3D               	btfss	(___ftmul@f1),(0)&7
  1950  07BB  2FBD               	goto	u3091
  1951  07BC  2FBE               	goto	u3090
  1952  07BD                     u3091:
  1953  07BD  2FCE               	goto	l1847
  1954  07BE                     u3090:
  1955                           	line	79
  1956                           	
  1957  07BE                     l3640:	
  1958  07BE  0840               	movf	(___ftmul@f2),w
  1959  07BF  07C8               	addwf	(___ftmul@f3_as_product),f
  1960  07C0  0841               	movf	(___ftmul@f2+1),w
  1961  07C1  1103               	clrz
  1962  07C2  1803               	skipnc
  1963  07C3  0A41               	incf	(___ftmul@f2+1),w
  1964  07C4  1903               	skipnz
  1965  07C5  2FC7               	goto	u3101
  1966  07C6  07C9               	addwf	(___ftmul@f3_as_product+1),f
  1967  07C7                     u3101:
  1968  07C7  0842               	movf	(___ftmul@f2+2),w
  1969  07C8  1103               	clrz
  1970  07C9  1803               	skipnc
  1971  07CA  0A42               	incf	(___ftmul@f2+2),w
  1972  07CB  1903               	skipnz
  1973  07CC  2FCE               	goto	u3102
  1974  07CD  07CA               	addwf	(___ftmul@f3_as_product+2),f
  1975  07CE                     u3102:
  1976                           
  1977                           	
  1978  07CE                     l1847:	
  1979                           	line	80
  1980                           	
  1981  07CE                     l3642:	
  1982  07CE  3001               	movlw	01h
  1983  07CF                     u3115:
  1984  07CF  1003               	clrc
  1985  07D0  0CBF               	rrf	(___ftmul@f1+2),f
  1986  07D1  0CBE               	rrf	(___ftmul@f1+1),f
  1987  07D2  0CBD               	rrf	(___ftmul@f1),f
  1988  07D3  3EFF               	addlw	-1
  1989  07D4  1D03               	skipz
  1990  07D5  2FCF               	goto	u3115
  1991                           
  1992                           	line	81
  1993                           	
  1994  07D6                     l3644:	
  1995  07D6  3001               	movlw	01h
  1996  07D7                     u3125:
  1997  07D7  1003               	clrc
  1998  07D8  0CCA               	rrf	(___ftmul@f3_as_product+2),f
  1999  07D9  0CC9               	rrf	(___ftmul@f3_as_product+1),f
  2000  07DA  0CC8               	rrf	(___ftmul@f3_as_product),f
  2001  07DB  3EFF               	addlw	-1
  2002  07DC  1D03               	skipz
  2003  07DD  2FD7               	goto	u3125
  2004                           
  2005                           	line	82
  2006                           	
  2007  07DE                     l3646:	
  2008  07DE  3001               	movlw	low(01h)
  2009  07DF  02CB               	subwf	(___ftmul@cntr),f
  2010  07E0  1D03               	btfss	status,2
  2011  07E1  2FE3               	goto	u3131
  2012  07E2  2FE4               	goto	u3130
  2013  07E3                     u3131:
  2014  07E3  2FBA               	goto	l1846
  2015  07E4                     u3130:
  2016                           	
  2017  07E4                     l1848:	
  2018                           	line	83
  2019                           	
  2020  07E4                     l3648:	
  2021  07E4  0848               	movf	(___ftmul@f3_as_product),w
  2022  07E5  00F0               	movwf	(?___ftpack)
  2023  07E6  0849               	movf	(___ftmul@f3_as_product+1),w
  2024  07E7  00F1               	movwf	(?___ftpack+1)
  2025  07E8  084A               	movf	(___ftmul@f3_as_product+2),w
  2026  07E9  00F2               	movwf	(?___ftpack+2)
  2027  07EA  0847               	movf	(___ftmul@exp),w
  2028  07EB  00C3               	movwf	(??___ftmul+0)+0
  2029  07EC  0843               	movf	(??___ftmul+0)+0,w
  2030  07ED  00F3               	movwf	0+(?___ftpack)+03h
  2031  07EE  084C               	movf	(___ftmul@sign),w
  2032  07EF  00C4               	movwf	(??___ftmul+1)+0
  2033  07F0  0844               	movf	(??___ftmul+1)+0,w
  2034  07F1  00F4               	movwf	0+(?___ftpack)+04h
  2035  07F2  120A  118A  242E   	fcall	___ftpack
              120A  118A         
  2036  07F7  0870               	movf	(0+(?___ftpack)),w
  2037  07F8  1283               	bcf	status, 5	;RP0=0, select bank0
  2038  07F9  1303               	bcf	status, 6	;RP1=0, select bank0
  2039  07FA  00BD               	movwf	(?___ftmul)
  2040  07FB  0871               	movf	(1+(?___ftpack)),w
  2041  07FC  00BE               	movwf	(?___ftmul+1)
  2042  07FD  0872               	movf	(2+(?___ftpack)),w
  2043  07FE  00BF               	movwf	(?___ftmul+2)
  2044                           	
  2045  07FF                     l3650:	
  2046                           	line	84
  2047                           	
  2048  07FF                     l1841:	
  2049  07FF  0008               	return
  2050                           	opt stack 0
  2051                           GLOBAL	__end_of___ftmul
  2052  0800                     	__end_of___ftmul:
  2053 ;; =============== function ___ftmul ends ============
  2054                           
  2055                           	signat	___ftmul,8315
  2056                           	global	___ftdiv
  2057                           psect	text365,local,class=CODE,delta=2
  2058                           global __ptext365
  2059  0659                     __ptext365:
  2060                           
  2061 ;; *************** function ___ftdiv *****************
  2062 ;; Defined at:
  2063 ;;		line 50 in file "C:\Program Files\HI-TECH Software\PICC\9.71a\sources\ftdiv.c"
  2064 ;; Parameters:    Size  Location     Type
  2065 ;;  f2              3   13[BANK0 ] float 
  2066 ;;  f1              3   16[BANK0 ] float 
  2067 ;; Auto vars:     Size  Location     Type
  2068 ;;  f3              3   24[BANK0 ] float 
  2069 ;;  sign            1   28[BANK0 ] unsigned char 
  2070 ;;  exp             1   27[BANK0 ] unsigned char 
  2071 ;;  cntr            1   23[BANK0 ] unsigned char 
  2072 ;; Return value:  Size  Location     Type
  2073 ;;                  3   13[BANK0 ] float 
  2074 ;; Registers used:
  2075 ;;		wreg, status,2, status,0, pclath, cstack
  2076 ;; Tracked objects:
  2077 ;;		On entry : 0/0
  2078 ;;		On exit  : 0/0
  2079 ;;		Unchanged: 0/0
  2080 ;; Data sizes:     COMMON   BANK0   BANK1   BANK3   BANK2
  2081 ;;      Params:         0       6       0       0       0
  2082 ;;      Locals:         0       6       0       0       0
  2083 ;;      Temps:          0       4       0       0       0
  2084 ;;      Totals:         0      16       0       0       0
  2085 ;;Total ram usage:       16 bytes
  2086 ;; Hardware stack levels used:    1
  2087 ;; Hardware stack levels required when called:    1
  2088 ;; This function calls:
  2089 ;;		___ftpack
  2090 ;; This function is called by:
  2091 ;;		_temp_value
  2092 ;; This function uses a non-reentrant model
  2093 ;;
  2094                           psect	text365
  2095                           	file	"C:\Program Files\HI-TECH Software\PICC\9.71a\sources\ftdiv.c"
  2096                           	line	50
  2097                           	global	__size_of___ftdiv
  2098  00C2                     	__size_of___ftdiv	equ	__end_of___ftdiv-___ftdiv
  2099                           	
  2100  0659                     ___ftdiv:	
  2101                           	opt	stack 6
  2102                           ; Regs used in ___ftdiv: [wreg+status,2+status,0+pclath+cstack]
  2103                           	line	55
  2104                           	
  2105  0659                     l3560:	
  2106  0659  1283               	bcf	status, 5	;RP0=0, select bank0
  2107  065A  1303               	bcf	status, 6	;RP1=0, select bank0
  2108  065B  0830               	movf	(___ftdiv@f1),w
  2109  065C  00B3               	movwf	((??___ftdiv+0)+0)
  2110  065D  0831               	movf	(___ftdiv@f1+1),w
  2111  065E  00B4               	movwf	((??___ftdiv+0)+0+1)
  2112  065F  0832               	movf	(___ftdiv@f1+2),w
  2113  0660  00B5               	movwf	((??___ftdiv+0)+0+2)
  2114  0661  1003               	clrc
  2115  0662  0D34               	rlf	(??___ftdiv+0)+1,w
  2116  0663  0D35               	rlf	(??___ftdiv+0)+2,w
  2117  0664  00B6               	movwf	(??___ftdiv+3)+0
  2118  0665  0836               	movf	(??___ftdiv+3)+0,w
  2119  0666  00BB               	movwf	(___ftdiv@exp)
  2120  0667  08BB               	movf	((___ftdiv@exp)),f
  2121  0668  1D03               	skipz
  2122  0669  2E6B               	goto	u2921
  2123  066A  2E6C               	goto	u2920
  2124  066B                     u2921:
  2125  066B  2E73               	goto	l1830
  2126  066C                     u2920:
  2127                           	line	56
  2128                           	
  2129  066C                     l3562:	
  2130  066C  3000               	movlw	0x0
  2131  066D  00AD               	movwf	(?___ftdiv)
  2132  066E  3000               	movlw	0x0
  2133  066F  00AE               	movwf	(?___ftdiv+1)
  2134  0670  3000               	movlw	0x0
  2135  0671  00AF               	movwf	(?___ftdiv+2)
  2136                           	
  2137  0672                     l3564:	
  2138  0672  2F1A               	goto	l1831
  2139                           	
  2140  0673                     l1830:	
  2141                           	line	57
  2142                           	
  2143  0673                     l3566:	
  2144  0673  082D               	movf	(___ftdiv@f2),w
  2145  0674  00B3               	movwf	((??___ftdiv+0)+0)
  2146  0675  082E               	movf	(___ftdiv@f2+1),w
  2147  0676  00B4               	movwf	((??___ftdiv+0)+0+1)
  2148  0677  082F               	movf	(___ftdiv@f2+2),w
  2149  0678  00B5               	movwf	((??___ftdiv+0)+0+2)
  2150  0679  1003               	clrc
  2151  067A  0D34               	rlf	(??___ftdiv+0)+1,w
  2152  067B  0D35               	rlf	(??___ftdiv+0)+2,w
  2153  067C  00B6               	movwf	(??___ftdiv+3)+0
  2154  067D  0836               	movf	(??___ftdiv+3)+0,w
  2155  067E  00BC               	movwf	(___ftdiv@sign)
  2156  067F  08BC               	movf	((___ftdiv@sign)),f
  2157  0680  1D03               	skipz
  2158  0681  2E83               	goto	u2931
  2159  0682  2E84               	goto	u2930
  2160  0683                     u2931:
  2161  0683  2E8B               	goto	l1832
  2162  0684                     u2930:
  2163                           	line	58
  2164                           	
  2165  0684                     l3568:	
  2166  0684  3000               	movlw	0x0
  2167  0685  00AD               	movwf	(?___ftdiv)
  2168  0686  3000               	movlw	0x0
  2169  0687  00AE               	movwf	(?___ftdiv+1)
  2170  0688  3000               	movlw	0x0
  2171  0689  00AF               	movwf	(?___ftdiv+2)
  2172                           	
  2173  068A                     l3570:	
  2174  068A  2F1A               	goto	l1831
  2175                           	
  2176  068B                     l1832:	
  2177                           	line	59
  2178                           	
  2179  068B                     l3572:	
  2180  068B  3000               	movlw	0
  2181  068C  00B8               	movwf	(___ftdiv@f3)
  2182  068D  3000               	movlw	0
  2183  068E  00B9               	movwf	(___ftdiv@f3+1)
  2184  068F  3000               	movlw	0
  2185  0690  00BA               	movwf	(___ftdiv@f3+2)
  2186                           	line	60
  2187                           	
  2188  0691                     l3574:	
  2189  0691  3089               	movlw	(089h)
  2190  0692  073C               	addwf	(___ftdiv@sign),w
  2191  0693  00B3               	movwf	(??___ftdiv+0)+0
  2192  0694  0833               	movf	0+(??___ftdiv+0)+0,w
  2193  0695  02BB               	subwf	(___ftdiv@exp),f
  2194                           	line	61
  2195                           	
  2196  0696                     l3576:	
  2197  0696  0830               	movf	(___ftdiv@f1),w
  2198  0697  00B3               	movwf	((??___ftdiv+0)+0)
  2199  0698  0831               	movf	(___ftdiv@f1+1),w
  2200  0699  00B4               	movwf	((??___ftdiv+0)+0+1)
  2201  069A  0832               	movf	(___ftdiv@f1+2),w
  2202  069B  00B5               	movwf	((??___ftdiv+0)+0+2)
  2203  069C  3010               	movlw	010h
  2204  069D                     u2945:
  2205  069D  1003               	clrc
  2206  069E  0CB5               	rrf	(??___ftdiv+0)+2,f
  2207  069F  0CB4               	rrf	(??___ftdiv+0)+1,f
  2208  06A0  0CB3               	rrf	(??___ftdiv+0)+0,f
  2209  06A1                     u2940:
  2210  06A1  3EFF               	addlw	-1
  2211  06A2  1D03               	skipz
  2212  06A3  2E9D               	goto	u2945
  2213  06A4  0833               	movf	0+(??___ftdiv+0)+0,w
  2214  06A5  00B6               	movwf	(??___ftdiv+3)+0
  2215  06A6  0836               	movf	(??___ftdiv+3)+0,w
  2216  06A7  00BC               	movwf	(___ftdiv@sign)
  2217                           	line	62
  2218                           	
  2219  06A8                     l3578:	
  2220  06A8  082D               	movf	(___ftdiv@f2),w
  2221  06A9  00B3               	movwf	((??___ftdiv+0)+0)
  2222  06AA  082E               	movf	(___ftdiv@f2+1),w
  2223  06AB  00B4               	movwf	((??___ftdiv+0)+0+1)
  2224  06AC  082F               	movf	(___ftdiv@f2+2),w
  2225  06AD  00B5               	movwf	((??___ftdiv+0)+0+2)
  2226  06AE  3010               	movlw	010h
  2227  06AF                     u2955:
  2228  06AF  1003               	clrc
  2229  06B0  0CB5               	rrf	(??___ftdiv+0)+2,f
  2230  06B1  0CB4               	rrf	(??___ftdiv+0)+1,f
  2231  06B2  0CB3               	rrf	(??___ftdiv+0)+0,f
  2232  06B3                     u2950:
  2233  06B3  3EFF               	addlw	-1
  2234  06B4  1D03               	skipz
  2235  06B5  2EAF               	goto	u2955
  2236  06B6  0833               	movf	0+(??___ftdiv+0)+0,w
  2237  06B7  00B6               	movwf	(??___ftdiv+3)+0
  2238  06B8  0836               	movf	(??___ftdiv+3)+0,w
  2239  06B9  06BC               	xorwf	(___ftdiv@sign),f
  2240                           	line	63
  2241                           	
  2242  06BA                     l3580:	
  2243  06BA  3080               	movlw	(080h)
  2244  06BB  00B3               	movwf	(??___ftdiv+0)+0
  2245  06BC  0833               	movf	(??___ftdiv+0)+0,w
  2246  06BD  05BC               	andwf	(___ftdiv@sign),f
  2247                           	line	64
  2248                           	
  2249  06BE                     l3582:	
  2250  06BE  17B1               	bsf	(___ftdiv@f1)+(15/8),(15)&7
  2251                           	line	65
  2252  06BF  30FF               	movlw	0FFh
  2253  06C0  05B0               	andwf	(___ftdiv@f1),f
  2254  06C1  30FF               	movlw	0FFh
  2255  06C2  05B1               	andwf	(___ftdiv@f1+1),f
  2256  06C3  3000               	movlw	0
  2257  06C4  05B2               	andwf	(___ftdiv@f1+2),f
  2258                           	line	66
  2259                           	
  2260  06C5                     l3584:	
  2261  06C5  17AE               	bsf	(___ftdiv@f2)+(15/8),(15)&7
  2262                           	line	67
  2263  06C6  30FF               	movlw	0FFh
  2264  06C7  05AD               	andwf	(___ftdiv@f2),f
  2265  06C8  30FF               	movlw	0FFh
  2266  06C9  05AE               	andwf	(___ftdiv@f2+1),f
  2267  06CA  3000               	movlw	0
  2268  06CB  05AF               	andwf	(___ftdiv@f2+2),f
  2269                           	line	68
  2270  06CC  3018               	movlw	(018h)
  2271  06CD  00B3               	movwf	(??___ftdiv+0)+0
  2272  06CE  0833               	movf	(??___ftdiv+0)+0,w
  2273  06CF  00B7               	movwf	(___ftdiv@cntr)
  2274                           	line	69
  2275                           	
  2276  06D0                     l1833:	
  2277                           	line	70
  2278                           	
  2279  06D0                     l3586:	
  2280  06D0  3001               	movlw	01h
  2281  06D1                     u2965:
  2282  06D1  1003               	clrc
  2283  06D2  0DB8               	rlf	(___ftdiv@f3),f
  2284  06D3  0DB9               	rlf	(___ftdiv@f3+1),f
  2285  06D4  0DBA               	rlf	(___ftdiv@f3+2),f
  2286  06D5  3EFF               	addlw	-1
  2287  06D6  1D03               	skipz
  2288  06D7  2ED1               	goto	u2965
  2289                           	line	71
  2290                           	
  2291  06D8                     l3588:	
  2292  06D8  082F               	movf	(___ftdiv@f2+2),w
  2293  06D9  0232               	subwf	(___ftdiv@f1+2),w
  2294  06DA  1D03               	skipz
  2295  06DB  2EE2               	goto	u2975
  2296  06DC  082E               	movf	(___ftdiv@f2+1),w
  2297  06DD  0231               	subwf	(___ftdiv@f1+1),w
  2298  06DE  1D03               	skipz
  2299  06DF  2EE2               	goto	u2975
  2300  06E0  082D               	movf	(___ftdiv@f2),w
  2301  06E1  0230               	subwf	(___ftdiv@f1),w
  2302  06E2                     u2975:
  2303  06E2  1C03               	skipc
  2304  06E3  2EE5               	goto	u2971
  2305  06E4  2EE6               	goto	u2970
  2306  06E5                     u2971:
  2307  06E5  2EF1               	goto	l1834
  2308  06E6                     u2970:
  2309                           	line	72
  2310                           	
  2311  06E6                     l3590:	
  2312  06E6  082D               	movf	(___ftdiv@f2),w
  2313  06E7  02B0               	subwf	(___ftdiv@f1),f
  2314  06E8  082E               	movf	(___ftdiv@f2+1),w
  2315  06E9  1C03               	skipc
  2316  06EA  0F2E               	incfsz	(___ftdiv@f2+1),w
  2317  06EB  02B1               	subwf	(___ftdiv@f1+1),f
  2318  06EC  082F               	movf	(___ftdiv@f2+2),w
  2319  06ED  1C03               	skipc
  2320  06EE  0A2F               	incf	(___ftdiv@f2+2),w
  2321  06EF  02B2               	subwf	(___ftdiv@f1+2),f
  2322                           	line	73
  2323                           	
  2324  06F0                     l3592:	
  2325  06F0  1438               	bsf	(___ftdiv@f3)+(0/8),(0)&7
  2326                           	line	74
  2327                           	
  2328  06F1                     l1834:	
  2329                           	line	75
  2330                           	
  2331  06F1                     l3594:	
  2332  06F1  3001               	movlw	01h
  2333  06F2                     u2985:
  2334  06F2  1003               	clrc
  2335  06F3  0DB0               	rlf	(___ftdiv@f1),f
  2336  06F4  0DB1               	rlf	(___ftdiv@f1+1),f
  2337  06F5  0DB2               	rlf	(___ftdiv@f1+2),f
  2338  06F6  3EFF               	addlw	-1
  2339  06F7  1D03               	skipz
  2340  06F8  2EF2               	goto	u2985
  2341                           	line	76
  2342                           	
  2343  06F9                     l3596:	
  2344  06F9  3001               	movlw	low(01h)
  2345  06FA  02B7               	subwf	(___ftdiv@cntr),f
  2346  06FB  1D03               	btfss	status,2
  2347  06FC  2EFE               	goto	u2991
  2348  06FD  2EFF               	goto	u2990
  2349  06FE                     u2991:
  2350  06FE  2ED0               	goto	l1833
  2351  06FF                     u2990:
  2352                           	
  2353  06FF                     l1835:	
  2354                           	line	77
  2355                           	
  2356  06FF                     l3598:	
  2357  06FF  0838               	movf	(___ftdiv@f3),w
  2358  0700  00F0               	movwf	(?___ftpack)
  2359  0701  0839               	movf	(___ftdiv@f3+1),w
  2360  0702  00F1               	movwf	(?___ftpack+1)
  2361  0703  083A               	movf	(___ftdiv@f3+2),w
  2362  0704  00F2               	movwf	(?___ftpack+2)
  2363  0705  083B               	movf	(___ftdiv@exp),w
  2364  0706  00B3               	movwf	(??___ftdiv+0)+0
  2365  0707  0833               	movf	(??___ftdiv+0)+0,w
  2366  0708  00F3               	movwf	0+(?___ftpack)+03h
  2367  0709  083C               	movf	(___ftdiv@sign),w
  2368  070A  00B4               	movwf	(??___ftdiv+1)+0
  2369  070B  0834               	movf	(??___ftdiv+1)+0,w
  2370  070C  00F4               	movwf	0+(?___ftpack)+04h
  2371  070D  120A  118A  242E   	fcall	___ftpack
              120A  118A         
  2372  0712  0870               	movf	(0+(?___ftpack)),w
  2373  0713  1283               	bcf	status, 5	;RP0=0, select bank0
  2374  0714  1303               	bcf	status, 6	;RP1=0, select bank0
  2375  0715  00AD               	movwf	(?___ftdiv)
  2376  0716  0871               	movf	(1+(?___ftpack)),w
  2377  0717  00AE               	movwf	(?___ftdiv+1)
  2378  0718  0872               	movf	(2+(?___ftpack)),w
  2379  0719  00AF               	movwf	(?___ftdiv+2)
  2380                           	
  2381  071A                     l3600:	
  2382                           	line	78
  2383                           	
  2384  071A                     l1831:	
  2385  071A  0008               	return
  2386                           	opt stack 0
  2387                           GLOBAL	__end_of___ftdiv
  2388  071B                     	__end_of___ftdiv:
  2389 ;; =============== function ___ftdiv ends ============
  2390                           
  2391                           	signat	___ftdiv,8315
  2392                           	global	_lcd_char
  2393                           psect	text366,local,class=CODE,delta=2
  2394                           global __ptext366
  2395  023B                     __ptext366:
  2396                           
  2397 ;; *************** function _lcd_char *****************
  2398 ;; Defined at:
  2399 ;;		line 23 in file "C:\Users\user.user-PC\Desktop\PIC-MCU\Baremetal_Code\core\drv\lcd\src\lcd_driver.c"
  2400 ;; Parameters:    Size  Location     Type
  2401 ;;  data            1    wreg     unsigned char 
  2402 ;; Auto vars:     Size  Location     Type
  2403 ;;  data            1    1[COMMON] unsigned char 
  2404 ;; Return value:  Size  Location     Type
  2405 ;;		None               void
  2406 ;; Registers used:
  2407 ;;		wreg
  2408 ;; Tracked objects:
  2409 ;;		On entry : 0/0
  2410 ;;		On exit  : 0/0
  2411 ;;		Unchanged: 0/0
  2412 ;; Data sizes:     COMMON   BANK0   BANK1   BANK3   BANK2
  2413 ;;      Params:         0       0       0       0       0
  2414 ;;      Locals:         1       0       0       0       0
  2415 ;;      Temps:          1       0       0       0       0
  2416 ;;      Totals:         2       0       0       0       0
  2417 ;;Total ram usage:        2 bytes
  2418 ;; Hardware stack levels used:    1
  2419 ;; This function calls:
  2420 ;;		Nothing
  2421 ;; This function is called by:
  2422 ;;		_display
  2423 ;;		_display1
  2424 ;;		_lcd_string
  2425 ;; This function uses a non-reentrant model
  2426 ;;
  2427                           psect	text366
  2428                           	file	"C:\Users\user.user-PC\Desktop\PIC-MCU\Baremetal_Code\core\drv\lcd\src\lcd_driver.
                                 c"
  2429                           	line	23
  2430                           	global	__size_of_lcd_char
  2431  0013                     	__size_of_lcd_char	equ	__end_of_lcd_char-_lcd_char
  2432                           	
  2433  023B                     _lcd_char:	
  2434                           	opt	stack 6
  2435                           ; Regs used in _lcd_char: [wreg]
  2436                           ;lcd_char@data stored from wreg
  2437                           	line	25
  2438  023B  00F1               	movwf	(lcd_char@data)
  2439                           	
  2440  023C                     l3552:	
  2441                           ;lcd_driver.c: 25: RE0=1;
  2442  023C  1283               	bcf	status, 5	;RP0=0, select bank0
  2443  023D  1303               	bcf	status, 6	;RP1=0, select bank0
  2444  023E  1409               	bsf	(72/8),(72)&7
  2445                           	line	26
  2446                           ;lcd_driver.c: 26: RE1=0;
  2447  023F  1089               	bcf	(73/8),(73)&7
  2448                           	line	27
  2449                           	
  2450  0240                     l3554:	
  2451                           ;lcd_driver.c: 27: PORTB=data;
  2452  0240  0871               	movf	(lcd_char@data),w
  2453  0241  0086               	movwf	(6)	;volatile
  2454                           	line	28
  2455                           	
  2456  0242                     l3556:	
  2457                           ;lcd_driver.c: 28: RE2=1;
  2458  0242  1509               	bsf	(74/8),(74)&7
  2459                           	line	29
  2460                           ;lcd_driver.c: 29: _delay((unsigned long)((1)*(4000000/4000.0)));
  2461                           	opt asmopt_off
  2462  0243  30F9               movlw	249
  2463  0244  00F0               movwf	(??_lcd_char+0)+0,f
  2464  0245                     u3167:
  2465  0245  0064               	clrwdt
  2466  0246  0BF0               decfsz	(??_lcd_char+0)+0,f
  2467  0247  2A45               	goto	u3167
  2468  0248  2A49               	nop2	;nop
  2469  0249  0064               	clrwdt
  2470                           opt asmopt_on
  2471                           
  2472                           	line	30
  2473                           	
  2474  024A                     l3558:	
  2475                           ;lcd_driver.c: 30: RE2=0;
  2476  024A  1283               	bcf	status, 5	;RP0=0, select bank0
  2477  024B  1303               	bcf	status, 6	;RP1=0, select bank0
  2478  024C  1109               	bcf	(74/8),(74)&7
  2479                           	line	32
  2480                           	
  2481  024D                     l1724:	
  2482  024D  0008               	return
  2483                           	opt stack 0
  2484                           GLOBAL	__end_of_lcd_char
  2485  024E                     	__end_of_lcd_char:
  2486 ;; =============== function _lcd_char ends ============
  2487                           
  2488                           	signat	_lcd_char,4216
  2489                           	global	_lcd_cmd
  2490                           psect	text367,local,class=CODE,delta=2
  2491                           global __ptext367
  2492  0228                     __ptext367:
  2493                           
  2494 ;; *************** function _lcd_cmd *****************
  2495 ;; Defined at:
  2496 ;;		line 13 in file "C:\Users\user.user-PC\Desktop\PIC-MCU\Baremetal_Code\core\drv\lcd\src\lcd_driver.c"
  2497 ;; Parameters:    Size  Location     Type
  2498 ;;  cmd             1    wreg     unsigned char 
  2499 ;; Auto vars:     Size  Location     Type
  2500 ;;  cmd             1    1[COMMON] unsigned char 
  2501 ;; Return value:  Size  Location     Type
  2502 ;;		None               void
  2503 ;; Registers used:
  2504 ;;		wreg
  2505 ;; Tracked objects:
  2506 ;;		On entry : 0/0
  2507 ;;		On exit  : 0/0
  2508 ;;		Unchanged: 0/0
  2509 ;; Data sizes:     COMMON   BANK0   BANK1   BANK3   BANK2
  2510 ;;      Params:         0       0       0       0       0
  2511 ;;      Locals:         1       0       0       0       0
  2512 ;;      Temps:          1       0       0       0       0
  2513 ;;      Totals:         2       0       0       0       0
  2514 ;;Total ram usage:        2 bytes
  2515 ;; Hardware stack levels used:    1
  2516 ;; This function calls:
  2517 ;;		Nothing
  2518 ;; This function is called by:
  2519 ;;		_main
  2520 ;;		_display
  2521 ;;		_display1
  2522 ;;		_lcd_init
  2523 ;; This function uses a non-reentrant model
  2524 ;;
  2525                           psect	text367
  2526                           	file	"C:\Users\user.user-PC\Desktop\PIC-MCU\Baremetal_Code\core\drv\lcd\src\lcd_driver.
                                 c"
  2527                           	line	13
  2528                           	global	__size_of_lcd_cmd
  2529  0013                     	__size_of_lcd_cmd	equ	__end_of_lcd_cmd-_lcd_cmd
  2530                           	
  2531  0228                     _lcd_cmd:	
  2532                           	opt	stack 6
  2533                           ; Regs used in _lcd_cmd: [wreg]
  2534                           ;lcd_cmd@cmd stored from wreg
  2535  0228  00F1               	movwf	(lcd_cmd@cmd)
  2536                           	line	14
  2537                           	
  2538  0229                     l3544:	
  2539                           ;lcd_driver.c: 14: RE0=0;
  2540  0229  1283               	bcf	status, 5	;RP0=0, select bank0
  2541  022A  1303               	bcf	status, 6	;RP1=0, select bank0
  2542  022B  1009               	bcf	(72/8),(72)&7
  2543                           	line	15
  2544                           ;lcd_driver.c: 15: RE1=0;
  2545  022C  1089               	bcf	(73/8),(73)&7
  2546                           	line	16
  2547                           	
  2548  022D                     l3546:	
  2549                           ;lcd_driver.c: 16: PORTB=cmd;
  2550  022D  0871               	movf	(lcd_cmd@cmd),w
  2551  022E  0086               	movwf	(6)	;volatile
  2552                           	line	17
  2553                           	
  2554  022F                     l3548:	
  2555                           ;lcd_driver.c: 17: RE2=1;
  2556  022F  1509               	bsf	(74/8),(74)&7
  2557                           	line	18
  2558                           ;lcd_driver.c: 18: _delay((unsigned long)((1)*(4000000/4000.0)));
  2559                           	opt asmopt_off
  2560  0230  30F9               movlw	249
  2561  0231  00F0               movwf	(??_lcd_cmd+0)+0,f
  2562  0232                     u3177:
  2563  0232  0064               	clrwdt
  2564  0233  0BF0               decfsz	(??_lcd_cmd+0)+0,f
  2565  0234  2A32               	goto	u3177
  2566  0235  2A36               	nop2	;nop
  2567  0236  0064               	clrwdt
  2568                           opt asmopt_on
  2569                           
  2570                           	line	19
  2571                           	
  2572  0237                     l3550:	
  2573                           ;lcd_driver.c: 19: RE2=0;
  2574  0237  1283               	bcf	status, 5	;RP0=0, select bank0
  2575  0238  1303               	bcf	status, 6	;RP1=0, select bank0
  2576  0239  1109               	bcf	(74/8),(74)&7
  2577                           	line	20
  2578                           	
  2579  023A                     l1721:	
  2580  023A  0008               	return
  2581                           	opt stack 0
  2582                           GLOBAL	__end_of_lcd_cmd
  2583  023B                     	__end_of_lcd_cmd:
  2584 ;; =============== function _lcd_cmd ends ============
  2585                           
  2586                           	signat	_lcd_cmd,4216
  2587                           	global	_adc_value
  2588                           psect	text368,local,class=CODE,delta=2
  2589                           global __ptext368
  2590  01F7                     __ptext368:
  2591                           
  2592 ;; *************** function _adc_value *****************
  2593 ;; Defined at:
  2594 ;;		line 26 in file "../../app/inc/..\..\platform\..\core\drv\adc\inc\adc_driver.h"
  2595 ;; Parameters:    Size  Location     Type
  2596 ;;  channel         1    wreg     unsigned char 
  2597 ;; Auto vars:     Size  Location     Type
  2598 ;;  channel         1    9[COMMON] unsigned char 
  2599 ;; Return value:  Size  Location     Type
  2600 ;;                  2    7[COMMON] unsigned short 
  2601 ;; Registers used:
  2602 ;;		wreg, status,2, status,0, btemp+0, pclath, cstack
  2603 ;; Tracked objects:
  2604 ;;		On entry : 0/0
  2605 ;;		On exit  : 0/0
  2606 ;;		Unchanged: 0/0
  2607 ;; Data sizes:     COMMON   BANK0   BANK1   BANK3   BANK2
  2608 ;;      Params:         2       0       0       0       0
  2609 ;;      Locals:         1       0       0       0       0
  2610 ;;      Temps:          0       0       0       0       0
  2611 ;;      Totals:         3       0       0       0       0
  2612 ;;Total ram usage:        3 bytes
  2613 ;; Hardware stack levels used:    1
  2614 ;; Hardware stack levels required when called:    1
  2615 ;; This function calls:
  2616 ;;		_adc_init
  2617 ;; This function is called by:
  2618 ;;		_main
  2619 ;; This function uses a non-reentrant model
  2620 ;;
  2621                           psect	text368
  2622                           	file	"../../app/inc/..\..\platform\..\core\drv\adc\inc\adc_driver.h"
  2623                           	line	26
  2624                           	global	__size_of_adc_value
  2625  000E                     	__size_of_adc_value	equ	__end_of_adc_value-_adc_value
  2626                           	
  2627  01F7                     _adc_value:	
  2628                           	opt	stack 7
  2629                           ; Regs used in _adc_value: [wreg+status,2-btemp+0+pclath+cstack]
  2630                           ;adc_value@channel stored from wreg
  2631  01F7  00F9               	movwf	(adc_value@channel)
  2632                           	line	27
  2633                           	
  2634  01F8                     l3540:	
  2635                           ;..\..\platform\..\core\drv\adc\inc\adc_driver.h: 27: return (adc_init(channel));
  2636  01F8  0879               	movf	(adc_value@channel),w
  2637  01F9  120A  118A  22B1   	fcall	_adc_init
              120A  118A         
  2638  01FE  0871               	movf	(1+(?_adc_init)),w
  2639  01FF  01F8               	clrf	(?_adc_value+1)
  2640  0200  07F8               	addwf	(?_adc_value+1)
  2641  0201  0870               	movf	(0+(?_adc_init)),w
  2642  0202  01F7               	clrf	(?_adc_value)
  2643  0203  07F7               	addwf	(?_adc_value)
  2644                           
  2645                           	
  2646  0204                     l3542:	
  2647                           	line	28
  2648                           	
  2649  0204                     l566:	
  2650  0204  0008               	return
  2651                           	opt stack 0
  2652                           GLOBAL	__end_of_adc_value
  2653  0205                     	__end_of_adc_value:
  2654 ;; =============== function _adc_value ends ============
  2655                           
  2656                           	signat	_adc_value,4218
  2657                           	global	___fttol
  2658                           psect	text369,local,class=CODE,delta=2
  2659                           global __ptext369
  2660  05BD                     __ptext369:
  2661                           
  2662 ;; *************** function ___fttol *****************
  2663 ;; Defined at:
  2664 ;;		line 45 in file "C:\Program Files\HI-TECH Software\PICC\9.71a\sources\fttol.c"
  2665 ;; Parameters:    Size  Location     Type
  2666 ;;  f1              3    8[COMMON] float 
  2667 ;; Auto vars:     Size  Location     Type
  2668 ;;  lval            4    5[BANK0 ] unsigned long 
  2669 ;;  exp1            1    9[BANK0 ] unsigned char 
  2670 ;;  sign1           1    4[BANK0 ] unsigned char 
  2671 ;; Return value:  Size  Location     Type
  2672 ;;                  4    8[COMMON] long 
  2673 ;; Registers used:
  2674 ;;		wreg, status,2, status,0
  2675 ;; Tracked objects:
  2676 ;;		On entry : 0/0
  2677 ;;		On exit  : 0/0
  2678 ;;		Unchanged: 0/0
  2679 ;; Data sizes:     COMMON   BANK0   BANK1   BANK3   BANK2
  2680 ;;      Params:         4       0       0       0       0
  2681 ;;      Locals:         0       6       0       0       0
  2682 ;;      Temps:          0       4       0       0       0
  2683 ;;      Totals:         4      10       0       0       0
  2684 ;;Total ram usage:       14 bytes
  2685 ;; Hardware stack levels used:    1
  2686 ;; This function calls:
  2687 ;;		Nothing
  2688 ;; This function is called by:
  2689 ;;		_temp_value
  2690 ;; This function uses a non-reentrant model
  2691 ;;
  2692                           psect	text369
  2693                           	file	"C:\Program Files\HI-TECH Software\PICC\9.71a\sources\fttol.c"
  2694                           	line	45
  2695                           	global	__size_of___fttol
  2696  009C                     	__size_of___fttol	equ	__end_of___fttol-___fttol
  2697                           	
  2698  05BD                     ___fttol:	
  2699                           	opt	stack 6
  2700                           ; Regs used in ___fttol: [wreg+status,2+status,0]
  2701                           	line	49
  2702                           	
  2703  05BD                     l3428:	
  2704  05BD  0878               	movf	(___fttol@f1),w
  2705  05BE  1283               	bcf	status, 5	;RP0=0, select bank0
  2706  05BF  1303               	bcf	status, 6	;RP1=0, select bank0
  2707  05C0  00A0               	movwf	((??___fttol+0)+0)
  2708  05C1  0879               	movf	(___fttol@f1+1),w
  2709  05C2  00A1               	movwf	((??___fttol+0)+0+1)
  2710  05C3  087A               	movf	(___fttol@f1+2),w
  2711  05C4  00A2               	movwf	((??___fttol+0)+0+2)
  2712  05C5  1003               	clrc
  2713  05C6  0D21               	rlf	(??___fttol+0)+1,w
  2714  05C7  0D22               	rlf	(??___fttol+0)+2,w
  2715  05C8  00A3               	movwf	(??___fttol+3)+0
  2716  05C9  0823               	movf	(??___fttol+3)+0,w
  2717  05CA  00A9               	movwf	(___fttol@exp1)
  2718  05CB  08A9               	movf	((___fttol@exp1)),f
  2719  05CC  1D03               	skipz
  2720  05CD  2DCF               	goto	u2741
  2721  05CE  2DD0               	goto	u2740
  2722  05CF                     u2741:
  2723  05CF  2DD9               	goto	l1851
  2724  05D0                     u2740:
  2725                           	line	50
  2726                           	
  2727  05D0                     l3430:	
  2728  05D0  3000               	movlw	0
  2729  05D1  00FB               	movwf	(?___fttol+3)
  2730  05D2  3000               	movlw	0
  2731  05D3  00FA               	movwf	(?___fttol+2)
  2732  05D4  3000               	movlw	0
  2733  05D5  00F9               	movwf	(?___fttol+1)
  2734  05D6  3000               	movlw	0
  2735  05D7  00F8               	movwf	(?___fttol)
  2736                           
  2737                           	
  2738  05D8                     l3432:	
  2739  05D8  2E58               	goto	l1852
  2740                           	
  2741  05D9                     l1851:	
  2742                           	line	51
  2743                           	
  2744  05D9                     l3434:	
  2745  05D9  0878               	movf	(___fttol@f1),w
  2746  05DA  00A0               	movwf	((??___fttol+0)+0)
  2747  05DB  0879               	movf	(___fttol@f1+1),w
  2748  05DC  00A1               	movwf	((??___fttol+0)+0+1)
  2749  05DD  087A               	movf	(___fttol@f1+2),w
  2750  05DE  00A2               	movwf	((??___fttol+0)+0+2)
  2751  05DF  3017               	movlw	017h
  2752  05E0                     u2755:
  2753  05E0  1003               	clrc
  2754  05E1  0CA2               	rrf	(??___fttol+0)+2,f
  2755  05E2  0CA1               	rrf	(??___fttol+0)+1,f
  2756  05E3  0CA0               	rrf	(??___fttol+0)+0,f
  2757  05E4                     u2750:
  2758  05E4  3EFF               	addlw	-1
  2759  05E5  1D03               	skipz
  2760  05E6  2DE0               	goto	u2755
  2761  05E7  0820               	movf	0+(??___fttol+0)+0,w
  2762  05E8  00A3               	movwf	(??___fttol+3)+0
  2763  05E9  0823               	movf	(??___fttol+3)+0,w
  2764  05EA  00A4               	movwf	(___fttol@sign1)
  2765                           	line	52
  2766                           	
  2767  05EB                     l3436:	
  2768  05EB  17F9               	bsf	(___fttol@f1)+(15/8),(15)&7
  2769                           	line	53
  2770                           	
  2771  05EC                     l3438:	
  2772  05EC  30FF               	movlw	0FFh
  2773  05ED  05F8               	andwf	(___fttol@f1),f
  2774  05EE  30FF               	movlw	0FFh
  2775  05EF  05F9               	andwf	(___fttol@f1+1),f
  2776  05F0  3000               	movlw	0
  2777  05F1  05FA               	andwf	(___fttol@f1+2),f
  2778                           	line	54
  2779                           	
  2780  05F2                     l3440:	
  2781  05F2  0878               	movf	(___fttol@f1),w
  2782  05F3  00A5               	movwf	(___fttol@lval)
  2783  05F4  0879               	movf	(___fttol@f1+1),w
  2784  05F5  00A6               	movwf	((___fttol@lval))+1
  2785  05F6  087A               	movf	(___fttol@f1+2),w
  2786  05F7  00A7               	movwf	((___fttol@lval))+2
  2787  05F8  01A8               	clrf	((___fttol@lval))+3
  2788                           	line	55
  2789                           	
  2790  05F9                     l3442:	
  2791  05F9  308E               	movlw	low(08Eh)
  2792  05FA  02A9               	subwf	(___fttol@exp1),f
  2793                           	line	56
  2794                           	
  2795  05FB                     l3444:	
  2796  05FB  1FA9               	btfss	(___fttol@exp1),7
  2797  05FC  2DFE               	goto	u2761
  2798  05FD  2DFF               	goto	u2760
  2799  05FE                     u2761:
  2800  05FE  2E21               	goto	l1853
  2801  05FF                     u2760:
  2802                           	line	57
  2803                           	
  2804  05FF                     l3446:	
  2805  05FF  0829               	movf	(___fttol@exp1),w
  2806  0600  3A80               	xorlw	80h
  2807  0601  3E8F               	addlw	-((-15)^80h)
  2808  0602  1803               	skipnc
  2809  0603  2E05               	goto	u2771
  2810  0604  2E06               	goto	u2770
  2811  0605                     u2771:
  2812  0605  2E0F               	goto	l1854
  2813  0606                     u2770:
  2814                           	line	58
  2815                           	
  2816  0606                     l3448:	
  2817  0606  3000               	movlw	0
  2818  0607  00FB               	movwf	(?___fttol+3)
  2819  0608  3000               	movlw	0
  2820  0609  00FA               	movwf	(?___fttol+2)
  2821  060A  3000               	movlw	0
  2822  060B  00F9               	movwf	(?___fttol+1)
  2823  060C  3000               	movlw	0
  2824  060D  00F8               	movwf	(?___fttol)
  2825                           
  2826                           	
  2827  060E                     l3450:	
  2828  060E  2E58               	goto	l1852
  2829                           	
  2830  060F                     l1854:	
  2831                           	line	59
  2832                           	
  2833  060F                     l1855:	
  2834                           	line	60
  2835                           	
  2836  060F                     l3452:	
  2837  060F  3001               	movlw	01h
  2838  0610                     u2785:
  2839  0610  1003               	clrc
  2840  0611  0CA8               	rrf	(___fttol@lval+3),f
  2841  0612  0CA7               	rrf	(___fttol@lval+2),f
  2842  0613  0CA6               	rrf	(___fttol@lval+1),f
  2843  0614  0CA5               	rrf	(___fttol@lval),f
  2844  0615  3EFF               	addlw	-1
  2845  0616  1D03               	skipz
  2846  0617  2E10               	goto	u2785
  2847                           
  2848                           	line	61
  2849  0618  3001               	movlw	(01h)
  2850  0619  00A0               	movwf	(??___fttol+0)+0
  2851  061A  0820               	movf	(??___fttol+0)+0,w
  2852  061B  07A9               	addwf	(___fttol@exp1),f
  2853  061C  1D03               	btfss	status,2
  2854  061D  2E1F               	goto	u2791
  2855  061E  2E20               	goto	u2790
  2856  061F                     u2791:
  2857  061F  2E0F               	goto	l1855
  2858  0620                     u2790:
  2859                           	
  2860  0620                     l1856:	
  2861                           	line	62
  2862  0620  2E41               	goto	l1857
  2863                           	
  2864  0621                     l1853:	
  2865                           	line	63
  2866                           	
  2867  0621                     l3454:	
  2868  0621  3018               	movlw	(018h)
  2869  0622  0229               	subwf	(___fttol@exp1),w
  2870  0623  1C03               	skipc
  2871  0624  2E26               	goto	u2801
  2872  0625  2E27               	goto	u2800
  2873  0626                     u2801:
  2874  0626  2E30               	goto	l1858
  2875  0627                     u2800:
  2876                           	line	64
  2877                           	
  2878  0627                     l3456:	
  2879  0627  3000               	movlw	0
  2880  0628  00FB               	movwf	(?___fttol+3)
  2881  0629  3000               	movlw	0
  2882  062A  00FA               	movwf	(?___fttol+2)
  2883  062B  3000               	movlw	0
  2884  062C  00F9               	movwf	(?___fttol+1)
  2885  062D  3000               	movlw	0
  2886  062E  00F8               	movwf	(?___fttol)
  2887                           
  2888                           	
  2889  062F                     l3458:	
  2890  062F  2E58               	goto	l1852
  2891                           	
  2892  0630                     l1858:	
  2893                           	line	65
  2894  0630  2E3C               	goto	l1859
  2895                           	
  2896  0631                     l1860:	
  2897                           	line	66
  2898                           	
  2899  0631                     l3460:	
  2900  0631  3001               	movlw	01h
  2901  0632  00A0               	movwf	(??___fttol+0)+0
  2902  0633                     u2815:
  2903  0633  1003               	clrc
  2904  0634  0DA5               	rlf	(___fttol@lval),f
  2905  0635  0DA6               	rlf	(___fttol@lval+1),f
  2906  0636  0DA7               	rlf	(___fttol@lval+2),f
  2907  0637  0DA8               	rlf	(___fttol@lval+3),f
  2908  0638  0BA0               	decfsz	(??___fttol+0)+0
  2909  0639  2E33               	goto	u2815
  2910                           	line	67
  2911  063A  3001               	movlw	low(01h)
  2912  063B  02A9               	subwf	(___fttol@exp1),f
  2913                           	line	68
  2914                           	
  2915  063C                     l1859:	
  2916                           	line	65
  2917                           	
  2918  063C                     l3462:	
  2919  063C  08A9               	movf	(___fttol@exp1),f
  2920  063D  1D03               	skipz
  2921  063E  2E40               	goto	u2821
  2922  063F  2E41               	goto	u2820
  2923  0640                     u2821:
  2924  0640  2E31               	goto	l1860
  2925  0641                     u2820:
  2926                           	
  2927  0641                     l1861:	
  2928                           	line	69
  2929                           	
  2930  0641                     l1857:	
  2931                           	line	70
  2932                           	
  2933  0641                     l3464:	
  2934  0641  0824               	movf	(___fttol@sign1),w
  2935  0642  1D03               	skipz
  2936  0643  2E45               	goto	u2830
  2937  0644  2E50               	goto	l1862
  2938  0645                     u2830:
  2939                           	line	71
  2940                           	
  2941  0645                     l3466:	
  2942  0645  09A5               	comf	(___fttol@lval),f
  2943  0646  09A6               	comf	(___fttol@lval+1),f
  2944  0647  09A7               	comf	(___fttol@lval+2),f
  2945  0648  09A8               	comf	(___fttol@lval+3),f
  2946  0649  0AA5               	incf	(___fttol@lval),f
  2947  064A  1903               	skipnz
  2948  064B  0AA6               	incf	(___fttol@lval+1),f
  2949  064C  1903               	skipnz
  2950  064D  0AA7               	incf	(___fttol@lval+2),f
  2951  064E  1903               	skipnz
  2952  064F  0AA8               	incf	(___fttol@lval+3),f
  2953                           	
  2954  0650                     l1862:	
  2955                           	line	72
  2956                           	
  2957  0650                     l3468:	
  2958  0650  0828               	movf	(___fttol@lval+3),w
  2959  0651  00FB               	movwf	(?___fttol+3)
  2960  0652  0827               	movf	(___fttol@lval+2),w
  2961  0653  00FA               	movwf	(?___fttol+2)
  2962  0654  0826               	movf	(___fttol@lval+1),w
  2963  0655  00F9               	movwf	(?___fttol+1)
  2964  0656  0825               	movf	(___fttol@lval),w
  2965  0657  00F8               	movwf	(?___fttol)
  2966                           
  2967                           	
  2968  0658                     l3470:	
  2969                           	line	73
  2970                           	
  2971  0658                     l1852:	
  2972  0658  0008               	return
  2973                           	opt stack 0
  2974                           GLOBAL	__end_of___fttol
  2975  0659                     	__end_of___fttol:
  2976 ;; =============== function ___fttol ends ============
  2977                           
  2978                           	signat	___fttol,4220
  2979                           	global	___ftpack
  2980                           psect	text370,local,class=CODE,delta=2
  2981                           global __ptext370
  2982  042E                     __ptext370:
  2983                           
  2984 ;; *************** function ___ftpack *****************
  2985 ;; Defined at:
  2986 ;;		line 63 in file "C:\Program Files\HI-TECH Software\PICC\9.71a\sources\float.c"
  2987 ;; Parameters:    Size  Location     Type
  2988 ;;  arg             3    0[COMMON] unsigned um
  2989 ;;  exp             1    3[COMMON] unsigned char 
  2990 ;;  sign            1    4[COMMON] unsigned char 
  2991 ;; Auto vars:     Size  Location     Type
  2992 ;;		None
  2993 ;; Return value:  Size  Location     Type
  2994 ;;                  3    0[COMMON] float 
  2995 ;; Registers used:
  2996 ;;		wreg, status,2, status,0
  2997 ;; Tracked objects:
  2998 ;;		On entry : 0/0
  2999 ;;		On exit  : 0/0
  3000 ;;		Unchanged: 0/0
  3001 ;; Data sizes:     COMMON   BANK0   BANK1   BANK3   BANK2
  3002 ;;      Params:         5       0       0       0       0
  3003 ;;      Locals:         0       0       0       0       0
  3004 ;;      Temps:          3       0       0       0       0
  3005 ;;      Totals:         8       0       0       0       0
  3006 ;;Total ram usage:        8 bytes
  3007 ;; Hardware stack levels used:    1
  3008 ;; This function calls:
  3009 ;;		Nothing
  3010 ;; This function is called by:
  3011 ;;		___ftdiv
  3012 ;;		___ftmul
  3013 ;;		___lwtoft
  3014 ;;		___ftadd
  3015 ;;		___lbtoft
  3016 ;;		___abtoft
  3017 ;;		___awtoft
  3018 ;;		___altoft
  3019 ;;		___lltoft
  3020 ;;		___attoft
  3021 ;;		___lttoft
  3022 ;; This function uses a non-reentrant model
  3023 ;;
  3024                           psect	text370
  3025                           	file	"C:\Program Files\HI-TECH Software\PICC\9.71a\sources\float.c"
  3026                           	line	63
  3027                           	global	__size_of___ftpack
  3028  0075                     	__size_of___ftpack	equ	__end_of___ftpack-___ftpack
  3029                           	
  3030  042E                     ___ftpack:	
  3031                           	opt	stack 5
  3032                           ; Regs used in ___ftpack: [wreg+status,2+status,0]
  3033                           	line	64
  3034                           	
  3035  042E                     l3392:	
  3036  042E  0873               	movf	(___ftpack@exp),w
  3037  042F  1D03               	skipz
  3038  0430  2C32               	goto	u2630
  3039  0431  2C39               	goto	l2076
  3040  0432                     u2630:
  3041                           	
  3042  0432                     l3394:	
  3043  0432  0872               	movf	(___ftpack@arg+2),w
  3044  0433  0471               	iorwf	(___ftpack@arg+1),w
  3045  0434  0470               	iorwf	(___ftpack@arg),w
  3046  0435  1D03               	skipz
  3047  0436  2C38               	goto	u2641
  3048  0437  2C39               	goto	u2640
  3049  0438                     u2641:
  3050  0438  2C40               	goto	l2074
  3051  0439                     u2640:
  3052                           	
  3053  0439                     l2076:	
  3054                           	line	65
  3055                           	
  3056  0439                     l3396:	
  3057  0439  3000               	movlw	0x0
  3058  043A  00F0               	movwf	(?___ftpack)
  3059  043B  3000               	movlw	0x0
  3060  043C  00F1               	movwf	(?___ftpack+1)
  3061  043D  3000               	movlw	0x0
  3062  043E  00F2               	movwf	(?___ftpack+2)
  3063                           	
  3064  043F                     l3398:	
  3065  043F  2CA2               	goto	l2077
  3066                           	
  3067  0440                     l2074:	
  3068                           	line	66
  3069  0440  2C4D               	goto	l2078
  3070                           	
  3071  0441                     l2079:	
  3072                           	line	67
  3073                           	
  3074  0441                     l3400:	
  3075  0441  3001               	movlw	(01h)
  3076  0442  00F5               	movwf	(??___ftpack+0)+0
  3077  0443  0875               	movf	(??___ftpack+0)+0,w
  3078  0444  07F3               	addwf	(___ftpack@exp),f
  3079                           	line	68
  3080  0445  3001               	movlw	01h
  3081  0446                     u2655:
  3082  0446  1003               	clrc
  3083  0447  0CF2               	rrf	(___ftpack@arg+2),f
  3084  0448  0CF1               	rrf	(___ftpack@arg+1),f
  3085  0449  0CF0               	rrf	(___ftpack@arg),f
  3086  044A  3EFF               	addlw	-1
  3087  044B  1D03               	skipz
  3088  044C  2C46               	goto	u2655
  3089                           
  3090                           	line	69
  3091                           	
  3092  044D                     l2078:	
  3093                           	line	66
  3094                           	
  3095  044D                     l3402:	
  3096  044D  30FE               	movlw	low highword(0FE0000h)
  3097  044E  0572               	andwf	(___ftpack@arg+2),w
  3098  044F  1D03               	btfss	status,2
  3099  0450  2C52               	goto	u2661
  3100  0451  2C53               	goto	u2660
  3101  0452                     u2661:
  3102  0452  2C41               	goto	l2079
  3103  0453                     u2660:
  3104                           	
  3105  0453                     l2080:	
  3106                           	line	70
  3107  0453  2C6A               	goto	l2081
  3108                           	
  3109  0454                     l2082:	
  3110                           	line	71
  3111                           	
  3112  0454                     l3404:	
  3113  0454  3001               	movlw	(01h)
  3114  0455  00F5               	movwf	(??___ftpack+0)+0
  3115  0456  0875               	movf	(??___ftpack+0)+0,w
  3116  0457  07F3               	addwf	(___ftpack@exp),f
  3117                           	line	72
  3118                           	
  3119  0458                     l3406:	
  3120  0458  3001               	movlw	01h
  3121  0459  07F0               	addwf	(___ftpack@arg),f
  3122  045A  3000               	movlw	0
  3123  045B  1803               	skipnc
  3124  045C  3001               movlw 1
  3125  045D  07F1               	addwf	(___ftpack@arg+1),f
  3126  045E  3000               	movlw	0
  3127  045F  1803               	skipnc
  3128  0460  3001               movlw 1
  3129  0461  07F2               	addwf	(___ftpack@arg+2),f
  3130                           	line	73
  3131                           	
  3132  0462                     l3408:	
  3133  0462  3001               	movlw	01h
  3134  0463                     u2675:
  3135  0463  1003               	clrc
  3136  0464  0CF2               	rrf	(___ftpack@arg+2),f
  3137  0465  0CF1               	rrf	(___ftpack@arg+1),f
  3138  0466  0CF0               	rrf	(___ftpack@arg),f
  3139  0467  3EFF               	addlw	-1
  3140  0468  1D03               	skipz
  3141  0469  2C63               	goto	u2675
  3142                           
  3143                           	line	74
  3144                           	
  3145  046A                     l2081:	
  3146                           	line	70
  3147  046A  30FF               	movlw	low highword(0FF0000h)
  3148  046B  0572               	andwf	(___ftpack@arg+2),w
  3149  046C  1D03               	btfss	status,2
  3150  046D  2C6F               	goto	u2681
  3151  046E  2C70               	goto	u2680
  3152  046F                     u2681:
  3153  046F  2C54               	goto	l2082
  3154  0470                     u2680:
  3155                           	
  3156  0470                     l2083:	
  3157                           	line	75
  3158  0470  2C7B               	goto	l2084
  3159                           	
  3160  0471                     l2085:	
  3161                           	line	76
  3162                           	
  3163  0471                     l3410:	
  3164  0471  3001               	movlw	low(01h)
  3165  0472  02F3               	subwf	(___ftpack@exp),f
  3166                           	line	77
  3167  0473  3001               	movlw	01h
  3168  0474                     u2695:
  3169  0474  1003               	clrc
  3170  0475  0DF0               	rlf	(___ftpack@arg),f
  3171  0476  0DF1               	rlf	(___ftpack@arg+1),f
  3172  0477  0DF2               	rlf	(___ftpack@arg+2),f
  3173  0478  3EFF               	addlw	-1
  3174  0479  1D03               	skipz
  3175  047A  2C74               	goto	u2695
  3176                           	line	78
  3177                           	
  3178  047B                     l2084:	
  3179                           	line	75
  3180                           	
  3181  047B                     l3412:	
  3182  047B  1FF1               	btfss	(___ftpack@arg+1),(15)&7
  3183  047C  2C7E               	goto	u2701
  3184  047D  2C7F               	goto	u2700
  3185  047E                     u2701:
  3186  047E  2C71               	goto	l2085
  3187  047F                     u2700:
  3188                           	
  3189  047F                     l2086:	
  3190                           	line	79
  3191  047F  1873               	btfsc	(___ftpack@exp),(0)&7
  3192  0480  2C82               	goto	u2711
  3193  0481  2C83               	goto	u2710
  3194  0482                     u2711:
  3195  0482  2C89               	goto	l2087
  3196  0483                     u2710:
  3197                           	line	80
  3198                           	
  3199  0483                     l3414:	
  3200  0483  30FF               	movlw	0FFh
  3201  0484  05F0               	andwf	(___ftpack@arg),f
  3202  0485  307F               	movlw	07Fh
  3203  0486  05F1               	andwf	(___ftpack@arg+1),f
  3204  0487  30FF               	movlw	0FFh
  3205  0488  05F2               	andwf	(___ftpack@arg+2),f
  3206                           	
  3207  0489                     l2087:	
  3208                           	line	81
  3209  0489  1003               	clrc
  3210  048A  0CF3               	rrf	(___ftpack@exp),f
  3211                           
  3212                           	line	82
  3213                           	
  3214  048B                     l3416:	
  3215  048B  0873               	movf	(___ftpack@exp),w
  3216  048C  00F5               	movwf	((??___ftpack+0)+0)
  3217  048D  01F6               	clrf	((??___ftpack+0)+0+1)
  3218  048E  01F7               	clrf	((??___ftpack+0)+0+2)
  3219  048F  3010               	movlw	010h
  3220  0490                     u2725:
  3221  0490  1003               	clrc
  3222  0491  0DF5               	rlf	(??___ftpack+0)+0,f
  3223  0492  0DF6               	rlf	(??___ftpack+0)+1,f
  3224  0493  0DF7               	rlf	(??___ftpack+0)+2,f
  3225  0494                     u2720:
  3226  0494  3EFF               	addlw	-1
  3227  0495  1D03               	skipz
  3228  0496  2C90               	goto	u2725
  3229  0497  0875               	movf	0+(??___ftpack+0)+0,w
  3230  0498  04F0               	iorwf	(___ftpack@arg),f
  3231  0499  0876               	movf	1+(??___ftpack+0)+0,w
  3232  049A  04F1               	iorwf	(___ftpack@arg+1),f
  3233  049B  0877               	movf	2+(??___ftpack+0)+0,w
  3234  049C  04F2               	iorwf	(___ftpack@arg+2),f
  3235                           	line	83
  3236                           	
  3237  049D                     l3418:	
  3238  049D  0874               	movf	(___ftpack@sign),w
  3239  049E  1D03               	skipz
  3240  049F  2CA1               	goto	u2730
  3241  04A0  2CA2               	goto	l2088
  3242  04A1                     u2730:
  3243                           	line	84
  3244                           	
  3245  04A1                     l3420:	
  3246  04A1  17F2               	bsf	(___ftpack@arg)+(23/8),(23)&7
  3247                           	
  3248  04A2                     l2088:	
  3249                           	line	85
  3250                           	line	86
  3251                           	
  3252  04A2                     l2077:	
  3253  04A2  0008               	return
  3254                           	opt stack 0
  3255                           GLOBAL	__end_of___ftpack
  3256  04A3                     	__end_of___ftpack:
  3257 ;; =============== function ___ftpack ends ============
  3258                           
  3259                           	signat	___ftpack,12411
  3260                           	global	___lwmod
  3261                           psect	text371,local,class=CODE,delta=2
  3262                           global __ptext371
  3263  02EC                     __ptext371:
  3264                           
  3265 ;; *************** function ___lwmod *****************
  3266 ;; Defined at:
  3267 ;;		line 5 in file "C:\Program Files\HI-TECH Software\PICC\9.71a\sources\lwmod.c"
  3268 ;; Parameters:    Size  Location     Type
  3269 ;;  divisor         2    0[COMMON] unsigned int 
  3270 ;;  dividend        2    2[COMMON] unsigned int 
  3271 ;; Auto vars:     Size  Location     Type
  3272 ;;  counter         1    5[COMMON] unsigned char 
  3273 ;; Return value:  Size  Location     Type
  3274 ;;                  2    0[COMMON] unsigned int 
  3275 ;; Registers used:
  3276 ;;		wreg, status,2, status,0
  3277 ;; Tracked objects:
  3278 ;;		On entry : 0/0
  3279 ;;		On exit  : 0/0
  3280 ;;		Unchanged: 0/0
  3281 ;; Data sizes:     COMMON   BANK0   BANK1   BANK3   BANK2
  3282 ;;      Params:         4       0       0       0       0
  3283 ;;      Locals:         1       0       0       0       0
  3284 ;;      Temps:          1       0       0       0       0
  3285 ;;      Totals:         6       0       0       0       0
  3286 ;;Total ram usage:        6 bytes
  3287 ;; Hardware stack levels used:    1
  3288 ;; This function calls:
  3289 ;;		Nothing
  3290 ;; This function is called by:
  3291 ;;		_display
  3292 ;;		_display1
  3293 ;; This function uses a non-reentrant model
  3294 ;;
  3295                           psect	text371
  3296                           	file	"C:\Program Files\HI-TECH Software\PICC\9.71a\sources\lwmod.c"
  3297                           	line	5
  3298                           	global	__size_of___lwmod
  3299  003D                     	__size_of___lwmod	equ	__end_of___lwmod-___lwmod
  3300                           	
  3301  02EC                     ___lwmod:	
  3302                           	opt	stack 6
  3303                           ; Regs used in ___lwmod: [wreg+status,2+status,0]
  3304                           	line	8
  3305                           	
  3306  02EC                     l3298:	
  3307  02EC  0871               	movf	(___lwmod@divisor+1),w
  3308  02ED  0470               	iorwf	(___lwmod@divisor),w
  3309  02EE  1903               	skipnz
  3310  02EF  2AF1               	goto	u2331
  3311  02F0  2AF2               	goto	u2330
  3312  02F1                     u2331:
  3313  02F1  2B22               	goto	l1758
  3314  02F2                     u2330:
  3315                           	line	9
  3316                           	
  3317  02F2                     l3300:	
  3318  02F2  01F5               	clrf	(___lwmod@counter)
  3319  02F3  1403               	bsf	status,0
  3320  02F4  0DF5               	rlf	(___lwmod@counter),f
  3321                           	line	10
  3322  02F5  2B01               	goto	l1759
  3323                           	
  3324  02F6                     l1760:	
  3325                           	line	11
  3326                           	
  3327  02F6                     l3302:	
  3328  02F6  3001               	movlw	01h
  3329                           	
  3330  02F7                     u2345:
  3331  02F7  1003               	clrc
  3332  02F8  0DF0               	rlf	(___lwmod@divisor),f
  3333  02F9  0DF1               	rlf	(___lwmod@divisor+1),f
  3334  02FA  3EFF               	addlw	-1
  3335  02FB  1D03               	skipz
  3336  02FC  2AF7               	goto	u2345
  3337                           	line	12
  3338                           	
  3339  02FD                     l3304:	
  3340  02FD  3001               	movlw	(01h)
  3341  02FE  00F4               	movwf	(??___lwmod+0)+0
  3342  02FF  0874               	movf	(??___lwmod+0)+0,w
  3343  0300  07F5               	addwf	(___lwmod@counter),f
  3344                           	line	13
  3345                           	
  3346  0301                     l1759:	
  3347                           	line	10
  3348                           	
  3349  0301                     l3306:	
  3350  0301  1FF1               	btfss	(___lwmod@divisor+1),(15)&7
  3351  0302  2B04               	goto	u2351
  3352  0303  2B05               	goto	u2350
  3353  0304                     u2351:
  3354  0304  2AF6               	goto	l1760
  3355  0305                     u2350:
  3356                           	
  3357  0305                     l1761:	
  3358                           	line	14
  3359                           	
  3360  0305                     l1762:	
  3361                           	line	15
  3362                           	
  3363  0305                     l3308:	
  3364  0305  0871               	movf	(___lwmod@divisor+1),w
  3365  0306  0273               	subwf	(___lwmod@dividend+1),w
  3366  0307  1D03               	skipz
  3367  0308  2B0B               	goto	u2365
  3368  0309  0870               	movf	(___lwmod@divisor),w
  3369  030A  0272               	subwf	(___lwmod@dividend),w
  3370  030B                     u2365:
  3371  030B  1C03               	skipc
  3372  030C  2B0E               	goto	u2361
  3373  030D  2B0F               	goto	u2360
  3374  030E                     u2361:
  3375  030E  2B15               	goto	l1763
  3376  030F                     u2360:
  3377                           	line	16
  3378                           	
  3379  030F                     l3310:	
  3380  030F  0870               	movf	(___lwmod@divisor),w
  3381  0310  02F2               	subwf	(___lwmod@dividend),f
  3382  0311  0871               	movf	(___lwmod@divisor+1),w
  3383  0312  1C03               	skipc
  3384  0313  03F3               	decf	(___lwmod@dividend+1),f
  3385  0314  02F3               	subwf	(___lwmod@dividend+1),f
  3386                           	
  3387  0315                     l1763:	
  3388                           	line	17
  3389                           	
  3390  0315                     l3312:	
  3391  0315  3001               	movlw	01h
  3392                           	
  3393  0316                     u2375:
  3394  0316  1003               	clrc
  3395  0317  0CF1               	rrf	(___lwmod@divisor+1),f
  3396  0318  0CF0               	rrf	(___lwmod@divisor),f
  3397  0319  3EFF               	addlw	-1
  3398  031A  1D03               	skipz
  3399  031B  2B16               	goto	u2375
  3400                           	line	18
  3401                           	
  3402  031C                     l3314:	
  3403  031C  3001               	movlw	low(01h)
  3404  031D  02F5               	subwf	(___lwmod@counter),f
  3405  031E  1D03               	btfss	status,2
  3406  031F  2B21               	goto	u2381
  3407  0320  2B22               	goto	u2380
  3408  0321                     u2381:
  3409  0321  2B05               	goto	l1762
  3410  0322                     u2380:
  3411                           	
  3412  0322                     l1764:	
  3413                           	line	19
  3414                           	
  3415  0322                     l1758:	
  3416                           	line	20
  3417                           	
  3418  0322                     l3316:	
  3419  0322  0873               	movf	(___lwmod@dividend+1),w
  3420  0323  01F1               	clrf	(?___lwmod+1)
  3421  0324  07F1               	addwf	(?___lwmod+1)
  3422  0325  0872               	movf	(___lwmod@dividend),w
  3423  0326  01F0               	clrf	(?___lwmod)
  3424  0327  07F0               	addwf	(?___lwmod)
  3425                           
  3426                           	
  3427  0328                     l3318:	
  3428                           	line	21
  3429                           	
  3430  0328                     l1765:	
  3431  0328  0008               	return
  3432                           	opt stack 0
  3433                           GLOBAL	__end_of___lwmod
  3434  0329                     	__end_of___lwmod:
  3435 ;; =============== function ___lwmod ends ============
  3436                           
  3437                           	signat	___lwmod,8314
  3438                           	global	___lwdiv
  3439                           psect	text372,local,class=CODE,delta=2
  3440                           global __ptext372
  3441  0329                     __ptext372:
  3442                           
  3443 ;; *************** function ___lwdiv *****************
  3444 ;; Defined at:
  3445 ;;		line 5 in file "C:\Program Files\HI-TECH Software\PICC\9.71a\sources\lwdiv.c"
  3446 ;; Parameters:    Size  Location     Type
  3447 ;;  divisor         2    6[COMMON] unsigned int 
  3448 ;;  dividend        2    8[COMMON] unsigned int 
  3449 ;; Auto vars:     Size  Location     Type
  3450 ;;  quotient        2   11[COMMON] unsigned int 
  3451 ;;  counter         1   13[COMMON] unsigned char 
  3452 ;; Return value:  Size  Location     Type
  3453 ;;                  2    6[COMMON] unsigned int 
  3454 ;; Registers used:
  3455 ;;		wreg, status,2, status,0
  3456 ;; Tracked objects:
  3457 ;;		On entry : 0/0
  3458 ;;		On exit  : 0/0
  3459 ;;		Unchanged: 0/0
  3460 ;; Data sizes:     COMMON   BANK0   BANK1   BANK3   BANK2
  3461 ;;      Params:         4       0       0       0       0
  3462 ;;      Locals:         3       0       0       0       0
  3463 ;;      Temps:          1       0       0       0       0
  3464 ;;      Totals:         8       0       0       0       0
  3465 ;;Total ram usage:        8 bytes
  3466 ;; Hardware stack levels used:    1
  3467 ;; This function calls:
  3468 ;;		Nothing
  3469 ;; This function is called by:
  3470 ;;		_display
  3471 ;;		_display1
  3472 ;; This function uses a non-reentrant model
  3473 ;;
  3474                           psect	text372
  3475                           	file	"C:\Program Files\HI-TECH Software\PICC\9.71a\sources\lwdiv.c"
  3476                           	line	5
  3477                           	global	__size_of___lwdiv
  3478  0049                     	__size_of___lwdiv	equ	__end_of___lwdiv-___lwdiv
  3479                           	
  3480  0329                     ___lwdiv:	
  3481                           	opt	stack 6
  3482                           ; Regs used in ___lwdiv: [wreg+status,2+status,0]
  3483                           	line	9
  3484                           	
  3485  0329                     l3274:	
  3486  0329  3000               	movlw	low(0)
  3487  032A  00FB               	movwf	(___lwdiv@quotient)
  3488  032B  3000               	movlw	high(0)
  3489  032C  00FC               	movwf	((___lwdiv@quotient))+1
  3490                           	line	10
  3491  032D  0877               	movf	(___lwdiv@divisor+1),w
  3492  032E  0476               	iorwf	(___lwdiv@divisor),w
  3493  032F  1903               	skipnz
  3494  0330  2B32               	goto	u2261
  3495  0331  2B33               	goto	u2260
  3496  0332                     u2261:
  3497  0332  2B6B               	goto	l1748
  3498  0333                     u2260:
  3499                           	line	11
  3500                           	
  3501  0333                     l3276:	
  3502  0333  01FD               	clrf	(___lwdiv@counter)
  3503  0334  1403               	bsf	status,0
  3504  0335  0DFD               	rlf	(___lwdiv@counter),f
  3505                           	line	12
  3506  0336  2B42               	goto	l1749
  3507                           	
  3508  0337                     l1750:	
  3509                           	line	13
  3510                           	
  3511  0337                     l3278:	
  3512  0337  3001               	movlw	01h
  3513                           	
  3514  0338                     u2275:
  3515  0338  1003               	clrc
  3516  0339  0DF6               	rlf	(___lwdiv@divisor),f
  3517  033A  0DF7               	rlf	(___lwdiv@divisor+1),f
  3518  033B  3EFF               	addlw	-1
  3519  033C  1D03               	skipz
  3520  033D  2B38               	goto	u2275
  3521                           	line	14
  3522                           	
  3523  033E                     l3280:	
  3524  033E  3001               	movlw	(01h)
  3525  033F  00FA               	movwf	(??___lwdiv+0)+0
  3526  0340  087A               	movf	(??___lwdiv+0)+0,w
  3527  0341  07FD               	addwf	(___lwdiv@counter),f
  3528                           	line	15
  3529                           	
  3530  0342                     l1749:	
  3531                           	line	12
  3532                           	
  3533  0342                     l3282:	
  3534  0342  1FF7               	btfss	(___lwdiv@divisor+1),(15)&7
  3535  0343  2B45               	goto	u2281
  3536  0344  2B46               	goto	u2280
  3537  0345                     u2281:
  3538  0345  2B37               	goto	l1750
  3539  0346                     u2280:
  3540                           	
  3541  0346                     l1751:	
  3542                           	line	16
  3543                           	
  3544  0346                     l1752:	
  3545                           	line	17
  3546                           	
  3547  0346                     l3284:	
  3548  0346  3001               	movlw	01h
  3549                           	
  3550  0347                     u2295:
  3551  0347  1003               	clrc
  3552  0348  0DFB               	rlf	(___lwdiv@quotient),f
  3553  0349  0DFC               	rlf	(___lwdiv@quotient+1),f
  3554  034A  3EFF               	addlw	-1
  3555  034B  1D03               	skipz
  3556  034C  2B47               	goto	u2295
  3557                           	line	18
  3558  034D  0877               	movf	(___lwdiv@divisor+1),w
  3559  034E  0279               	subwf	(___lwdiv@dividend+1),w
  3560  034F  1D03               	skipz
  3561  0350  2B53               	goto	u2305
  3562  0351  0876               	movf	(___lwdiv@divisor),w
  3563  0352  0278               	subwf	(___lwdiv@dividend),w
  3564  0353                     u2305:
  3565  0353  1C03               	skipc
  3566  0354  2B56               	goto	u2301
  3567  0355  2B57               	goto	u2300
  3568  0356                     u2301:
  3569  0356  2B5E               	goto	l1753
  3570  0357                     u2300:
  3571                           	line	19
  3572                           	
  3573  0357                     l3286:	
  3574  0357  0876               	movf	(___lwdiv@divisor),w
  3575  0358  02F8               	subwf	(___lwdiv@dividend),f
  3576  0359  0877               	movf	(___lwdiv@divisor+1),w
  3577  035A  1C03               	skipc
  3578  035B  03F9               	decf	(___lwdiv@dividend+1),f
  3579  035C  02F9               	subwf	(___lwdiv@dividend+1),f
  3580                           	line	20
  3581                           	
  3582  035D                     l3288:	
  3583  035D  147B               	bsf	(___lwdiv@quotient)+(0/8),(0)&7
  3584                           	line	21
  3585                           	
  3586  035E                     l1753:	
  3587                           	line	22
  3588                           	
  3589  035E                     l3290:	
  3590  035E  3001               	movlw	01h
  3591                           	
  3592  035F                     u2315:
  3593  035F  1003               	clrc
  3594  0360  0CF7               	rrf	(___lwdiv@divisor+1),f
  3595  0361  0CF6               	rrf	(___lwdiv@divisor),f
  3596  0362  3EFF               	addlw	-1
  3597  0363  1D03               	skipz
  3598  0364  2B5F               	goto	u2315
  3599                           	line	23
  3600                           	
  3601  0365                     l3292:	
  3602  0365  3001               	movlw	low(01h)
  3603  0366  02FD               	subwf	(___lwdiv@counter),f
  3604  0367  1D03               	btfss	status,2
  3605  0368  2B6A               	goto	u2321
  3606  0369  2B6B               	goto	u2320
  3607  036A                     u2321:
  3608  036A  2B46               	goto	l1752
  3609  036B                     u2320:
  3610                           	
  3611  036B                     l1754:	
  3612                           	line	24
  3613                           	
  3614  036B                     l1748:	
  3615                           	line	25
  3616                           	
  3617  036B                     l3294:	
  3618  036B  087C               	movf	(___lwdiv@quotient+1),w
  3619  036C  01F7               	clrf	(?___lwdiv+1)
  3620  036D  07F7               	addwf	(?___lwdiv+1)
  3621  036E  087B               	movf	(___lwdiv@quotient),w
  3622  036F  01F6               	clrf	(?___lwdiv)
  3623  0370  07F6               	addwf	(?___lwdiv)
  3624                           
  3625                           	
  3626  0371                     l3296:	
  3627                           	line	26
  3628                           	
  3629  0371                     l1755:	
  3630  0371  0008               	return
  3631                           	opt stack 0
  3632                           GLOBAL	__end_of___lwdiv
  3633  0372                     	__end_of___lwdiv:
  3634 ;; =============== function ___lwdiv ends ============
  3635                           
  3636                           	signat	___lwdiv,8314
  3637                           	global	_adc_init
  3638                           psect	text373,local,class=CODE,delta=2
  3639                           global __ptext373
  3640  02B1                     __ptext373:
  3641                           
  3642 ;; *************** function _adc_init *****************
  3643 ;; Defined at:
  3644 ;;		line 9 in file "../../app/inc/..\..\platform\..\core\drv\adc\inc\adc_driver.h"
  3645 ;; Parameters:    Size  Location     Type
  3646 ;;  channel         1    wreg     unsigned char 
  3647 ;; Auto vars:     Size  Location     Type
  3648 ;;  channel         1    6[COMMON] unsigned char 
  3649 ;;  value           2    4[COMMON] unsigned short 
  3650 ;; Return value:  Size  Location     Type
  3651 ;;                  2    0[COMMON] unsigned short 
  3652 ;; Registers used:
  3653 ;;		wreg, status,2, status,0, btemp+0
  3654 ;; Tracked objects:
  3655 ;;		On entry : 0/0
  3656 ;;		On exit  : 0/0
  3657 ;;		Unchanged: 0/0
  3658 ;; Data sizes:     COMMON   BANK0   BANK1   BANK3   BANK2
  3659 ;;      Params:         2       0       0       0       0
  3660 ;;      Locals:         3       0       0       0       0
  3661 ;;      Temps:          2       0       0       0       0
  3662 ;;      Totals:         7       0       0       0       0
  3663 ;;Total ram usage:        7 bytes
  3664 ;; Hardware stack levels used:    1
  3665 ;; This function calls:
  3666 ;;		Nothing
  3667 ;; This function is called by:
  3668 ;;		_adc_value
  3669 ;;		_temp_value
  3670 ;; This function uses a non-reentrant model
  3671 ;;
  3672                           psect	text373
  3673                           	file	"../../app/inc/..\..\platform\..\core\drv\adc\inc\adc_driver.h"
  3674                           	line	9
  3675                           	global	__size_of_adc_init
  3676  003B                     	__size_of_adc_init	equ	__end_of_adc_init-_adc_init
  3677                           	
  3678  02B1                     _adc_init:	
  3679                           	opt	stack 6
  3680                           ; Regs used in _adc_init: [wreg+status,2-btemp+0]
  3681                           ;adc_init@channel stored from wreg
  3682  02B1  00F6               	movwf	(adc_init@channel)
  3683                           	line	10
  3684                           	
  3685  02B2                     l3260:	
  3686                           ;..\..\platform\..\core\drv\adc\inc\adc_driver.h: 10: unsigned short int value=0;
  3687  02B2  3000               	movlw	low(0)
  3688  02B3  00F4               	movwf	(adc_init@value)
  3689  02B4  3000               	movlw	high(0)
  3690  02B5  00F5               	movwf	((adc_init@value))+1
  3691                           	line	13
  3692                           ;..\..\platform\..\core\drv\adc\inc\adc_driver.h: 13: if(channel<8)
  3693  02B6  3008               	movlw	(08h)
  3694  02B7  0276               	subwf	(adc_init@channel),w
  3695  02B8  1803               	skipnc
  3696  02B9  2ABB               	goto	u2221
  3697  02BA  2ABC               	goto	u2220
  3698  02BB                     u2221:
  3699  02BB  2AE5               	goto	l559
  3700  02BC                     u2220:
  3701                           	line	15
  3702                           	
  3703  02BC                     l3262:	
  3704                           ;..\..\platform\..\core\drv\adc\inc\adc_driver.h: 14: {
  3705                           ;..\..\platform\..\core\drv\adc\inc\adc_driver.h: 15: ADCON1=0X82;
  3706  02BC  3082               	movlw	(082h)
  3707  02BD  1683               	bsf	status, 5	;RP0=1, select bank1
  3708  02BE  1303               	bcf	status, 6	;RP1=0, select bank1
  3709  02BF  009F               	movwf	(159)^080h	;volatile
  3710                           	line	16
  3711                           	
  3712  02C0                     l3264:	
  3713                           ;..\..\platform\..\core\drv\adc\inc\adc_driver.h: 16: ADCON0 =0b11000001|channel<<3;
  3714  02C0  0876               	movf	(adc_init@channel),w
  3715  02C1  00F2               	movwf	(??_adc_init+0)+0
  3716  02C2  3002               	movlw	(03h)-1
  3717  02C3                     u2235:
  3718  02C3  1003               	clrc
  3719  02C4  0DF2               	rlf	(??_adc_init+0)+0,f
  3720  02C5  3EFF               	addlw	-1
  3721  02C6  1D03               	skipz
  3722  02C7  2AC3               	goto	u2235
  3723  02C8  1003               	clrc
  3724  02C9  0D72               	rlf	(??_adc_init+0)+0,w
  3725  02CA  38C1               	iorlw	0C1h
  3726  02CB  1283               	bcf	status, 5	;RP0=0, select bank0
  3727  02CC  1303               	bcf	status, 6	;RP1=0, select bank0
  3728  02CD  009F               	movwf	(31)	;volatile
  3729                           	line	17
  3730                           	
  3731  02CE                     l3266:	
  3732                           ;..\..\platform\..\core\drv\adc\inc\adc_driver.h: 17: ADCON0|=1<<2;
  3733  02CE  151F               	bsf	(31)+(2/8),(2)&7	;volatile
  3734                           	line	18
  3735                           ;..\..\platform\..\core\drv\adc\inc\adc_driver.h: 18: while((ADCON0&1<<2));
  3736  02CF  2AD0               	goto	l560
  3737                           	
  3738  02D0                     l561:	
  3739                           	
  3740  02D0                     l560:	
  3741  02D0  191F               	btfsc	(31),(2)&7
  3742  02D1  2AD3               	goto	u2241
  3743  02D2  2AD4               	goto	u2240
  3744  02D3                     u2241:
  3745  02D3  2AD0               	goto	l561
  3746  02D4                     u2240:
  3747                           	
  3748  02D4                     l562:	
  3749                           	line	19
  3750                           	
  3751  02D4                     l3268:	
  3752                           ;..\..\platform\..\core\drv\adc\inc\adc_driver.h: 19: value=(ADRESL)|(ADRESH<<8);
  3753  02D4  081E               	movf	(30),w	;volatile
  3754  02D5  00F2               	movwf	(??_adc_init+0)+0
  3755  02D6  01F3               	clrf	(??_adc_init+0)+0+1
  3756  02D7  3008               	movlw	08h
  3757  02D8  00FE               	movwf	btemp+0
  3758  02D9                     u2255:
  3759  02D9  1003               	clrc
  3760  02DA  0DF2               	rlf	(??_adc_init+0)+0,f
  3761  02DB  0DF3               	rlf	(??_adc_init+0)+1,f
  3762  02DC  0BFE               	decfsz	btemp+0,f
  3763  02DD  2AD9               	goto	u2255
  3764  02DE  0872               	movf	0+(??_adc_init+0)+0,w
  3765  02DF  1683               	bsf	status, 5	;RP0=1, select bank1
  3766  02E0  1303               	bcf	status, 6	;RP1=0, select bank1
  3767  02E1  041E               	iorwf	(158)^080h,w	;volatile
  3768  02E2  00F4               	movwf	(adc_init@value)
  3769  02E3  0873               	movf	1+(??_adc_init+0)+0,w
  3770  02E4  00F5               	movwf	1+(adc_init@value)
  3771                           	line	20
  3772                           	
  3773  02E5                     l559:	
  3774                           	line	21
  3775                           	
  3776  02E5                     l3270:	
  3777                           ;..\..\platform\..\core\drv\adc\inc\adc_driver.h: 20: }
  3778                           ;..\..\platform\..\core\drv\adc\inc\adc_driver.h: 21: return value;
  3779  02E5  0875               	movf	(adc_init@value+1),w
  3780  02E6  01F1               	clrf	(?_adc_init+1)
  3781  02E7  07F1               	addwf	(?_adc_init+1)
  3782  02E8  0874               	movf	(adc_init@value),w
  3783  02E9  01F0               	clrf	(?_adc_init)
  3784  02EA  07F0               	addwf	(?_adc_init)
  3785                           
  3786                           	
  3787  02EB                     l3272:	
  3788                           	line	23
  3789                           	
  3790  02EB                     l563:	
  3791  02EB  0008               	return
  3792                           	opt stack 0
  3793                           GLOBAL	__end_of_adc_init
  3794  02EC                     	__end_of_adc_init:
  3795 ;; =============== function _adc_init ends ============
  3796                           
  3797                           	signat	_adc_init,4218
  3798                           psect	text374,local,class=CODE,delta=2
  3799                           global __ptext374
  3800  0000                     __ptext374:
  3801                           	global	btemp
  3802  007E                     	btemp set 07Eh
  3803                           
  3804                           	DABS	1,126,2	;btemp
  3805                           	global	wtemp0
  3806  007E                     	wtemp0 set btemp


HI-TECH Software PICC Macro Assembler V9.71a build 6446 
Symbol Table                                                                                   Mon Dec 21 19:45:15 2020

         lcd_char@data 0071                      pc 0002                     fsr 0004                    l560 02D0  
                  l561 02D0                    l562 02D4                    l563 02EB                    l566 0204  
                  l559 02E5                    l569 03C1                    _RE0 0048                    _RE1 0049  
                  _RE2 004A                    fsr0 0004                    indf 0000           ___ftdiv@cntr 0037  
         ___ftdiv@sign 003C                   l1151 03FC                   l1160 05BC                   l1152 042A  
                 l1153 042B                   l1154 042B                   l1157 0529                   l2080 0453  
                 l2081 046A                   l2082 0454                   l2074 0440                   l2083 0470  
                 l3300 02F2                   l2084 047B                   l2076 0439                   l2085 0471  
                 l2077 04A2                   l3310 030F                   l3302 02F6                   l2086 047F  
                 l2078 044D                   l2087 0489                   l2079 0441                   l3312 0315  
                 l3304 02FD                   l2088 04A2                   l3400 0441                   l1721 023A  
                 l3314 031C                   l3306 0301                   l3410 0471                   l3402 044D  
                 l1730 02B0                   l3260 02B2                   l3316 0322                   l3308 0305  
                 l3420 04A1                   l3412 047B                   l3404 0454                   l1724 024D  
                 l1733 028C                   l3270 02E5                   l3262 02BC                   l1750 0337  
                 l3318 0328                   l3414 0483                   l3406 0458                   l3430 05D0  
                 l1830 0673                   l1751 0346                   l1831 071A                   l1727 02A2  
                 l3272 02EB                   l3264 02C0                   l1752 0346                   l3280 033E  
                 l1760 02F6                   l3416 048B                   l3408 0462                   l3440 05F2  
                 l3432 05D8                   l3600 071A                   l1832 068B                   l1840 0735  
                 l1728 028E                   l1753 035E                   l1761 0305                   l1833 06D0  
                 l1841 07FF                   l1729 02B0                   l3266 02CE                   l1754 036B  
                 l3290 035E                   l3282 0342                   l3274 0329                   l1762 0305  
                 l3418 049D                   l3450 060E                   l3442 05F9                   l3434 05D9  
                 l1834 06F1                   l3610 0746                   l1842 074D                   l3602 071B  
                 l1755 0371                   l1763 0315                   l1851 05D9                   l1835 06FF  
                 l1843 078C                   l3268 02D4                   l3292 0365                   l3284 0346  
                 l3276 0333                   l1748 036B                   l1764 0322                   l3460 0631  
                 l1860 0631                   l3452 060F                   l3444 05FB                   l3436 05EB  
                 l1852 0658                   l3428 05BD                   l3540 01F8                   l1844 07A0  
                 l3620 077C                   l3612 074C                   l3604 072E                   l3700 0413  
                 l1749 0342                   l1765 0328                   l1861 0641                   l1853 0621  
                 l1845 07B6                   l3294 036B                   l3286 0357                   l3278 0337  
                 l1758 0322                   l3470 0658                   l1862 0650                   l3462 063C  
                 l3454 0621                   l1854 060F                   l3446 05FF                   l3438 05EC  
                 l3542 0204                   l3550 0237                   l1846 07BA                   l3630 07A0  
                 l3622 0782                   l3614 074D                   l3606 0734                   l1759 0301  
                 l1855 060F                   l1847 07CE                   l3296 0371                   l3288 035D  
                 l3392 042E                   l3464 0641                   l3456 0627                   l1856 0620  
                 l3448 0606                   l3544 0229                   l3552 023C                   l3560 0659  
                 l1848 07E4                   l3640 07BE                   l3632 07A8                   l3624 0788  
                 l3616 077A                   l3608 0735                   l1857 0641                   l3298 02EC  
                 l3394 0432                   l3466 0645                   l3458 062F                   l1858 0630  
                 l3546 022D                   l3554 0240                   l3570 068A                   l3562 066C  
                 l3650 07FF                   l3642 07CE                   l3634 07B0                   l3626 078C  
                 l3618 077B                   l1859 063C                   l3396 0439                   l3468 0650  
                 l3548 022F                   l3556 0242                   l3580 06BA                   l3572 068B  
                 l3564 0672                   l3644 07D6                   l3636 07B6                   l3628 0790  
                 l3652 024E                   l3660 026C                   l1965 026B                   l3398 043F  
                 l3558 024A                   l3590 06E6                   l3582 06BE                   l3574 0691  
                 l3566 0673                   l3646 07DE                   l3638 07BA                   l3654 026B  
                 l3670 027A                   l3662 0270                   l3592 06F0                   l3584 06C5  
                 l3576 0696                   l3568 0684                   l3648 07E4                   l3656 0373  
                 l3672 0280                   l3664 0271                   l3680 029C                   l3594 06F1  
                 l3586 06D0                   l3578 06A8                   l3658 03C1                   l3674 0286  
                 l3666 0274                   l3682 02A2                   l3690 03CD                   l3596 06F9  
                 l3588 06D8                   l3668 0277                   l3676 028D                   l3684 04A3  
                 l3692 03E4                   l3598 06FF                   l3678 028E                   l3686 052A  
                 l3694 03ED                   l3696 03F3                   l3688 03C2                   l3698 03FC  
                 STR_1 0013                   u3000 072E                   u3001 072D                   u3010 0746  
                 u3011 0745                   u2220 02BC                   u2300 0357                   u3020 075D  
                 u2221 02BB                   u2301 0356                   u3101 07C7                   u3102 07CE  
                 u3030 076F                   u2240 02D4                   u2320 036B                   u3040 0790  
                 u2241 02D3                   u2321 036A                   u2305 0353                   u3041 078F  
                 u3025 0759                   u2330 02F2                   u3130 07E4                   u2235 02C3  
                 u2315 035F                   u2331 02F1                   u3131 07E3                   u3115 07CF  
                 u3051 0799                   u3035 076B                   u2260 0333                   u3052 07A0  
                 u3140 02B0                   u2261 0332                   u3125 07D7                   u3141 02AF  
                 u2350 0305                   u3150 03D7                   u2255 02D9                   u2351 0304  
                 u2280 0346                   u2360 030F                   u3080 07B6                   u2281 0345  
                 u2361 030E                   u2345 02F7                   u3081 07B5                   u3065 07A1  
                 u3090 07BE                   u2275 0338                   u3091 07BD                   u3075 07A9  
                 u2380 0322                   u2700 047F                   u2381 0321                   u2365 030B  
                 u2701 047E                   u2710 0483                   u2630 0432                   u2295 0347  
                 u2375 0316                   u2711 0482                   u3167 0245                   u2720 0494  
                 u2640 0439                   u2800 0627                   u2641 0438                   u2801 0626  
                 u3177 0232                   u2730 04A1                   u2660 0453                   u2820 0641  
                 u2740 05D0                   u2725 0490                   u2661 0452                   u2821 0640  
                 u2741 05CF                   u2830 0645                   u2750 05E4                   u2655 0446  
                 u2815 0633                   u2680 0470                   u2760 05FF                   u2920 066C  
                 u2681 046F                   u2761 05FE                   u2921 066B                   u2770 0606  
                 u2930 0684                   u2675 0463                   u2771 0605                   u2755 05E0  
                 u2931 0683                   u2940 06A1                   u2790 0620                   u2950 06B3  
                 u2695 0474                   u2791 061F                   u2785 0610                   u2945 069D  
                 u2970 06E6                   u2971 06E5                   u2955 06AF                   u2965 06D1  
                 u2990 06FF                   u2991 06FE                   u2975 06E2                   u2985 06F2  
                 _main 03C2           ___ftpack@arg 0070           ___ftpack@exp 0073                   btemp 007E  
                 start 0000           ___ftmul@cntr 004B           ___ftmul@sign 004C           ___fttol@exp1 0029  
         ___fttol@lval 0025                  ?_main 0070        __end_of___ftdiv 071B        __end_of___ftmul 0800  
      __end_of___fttol 0659        __end_of___lwdiv 0372        __end_of___lwmod 0329                  _PORTB 0006  
                _PORTE 0009                  _TRISB 0086                  _TRISE 0089        __end_of_lcd_cmd 023B  
      __end_of_display 052A           display@value 0020          ___ftpack@sign 0074                  main@a 0056  
                pclath 000A                  status 0003                  wtemp0 007E           __end_of_main 042E  
               ??_main 0052          ___fttol@sign1 0024          display1@value 004F                 _ADCON0 001F  
               _ADCON1 009F                 _ADRESH 001E                 _ADRESL 009E       __end_of___ftpack 04A3  
     __end_of_adc_init 02EC       __end_of___lwtoft 026C       __end_of_lcd_char 024E       __end_of_lcd_init 028D  
     __end_of_display1 05BD              ??___ftdiv 0033              ??___ftmul 0043              ??___fttol 0020  
            ??___lwdiv 007A              ??___lwmod 0074              ??_lcd_cmd 0070              ??_display 007E  
___ftmul@f3_as_product 0048          lcd_string@ptr 0072     __size_of_adc_value 000E             ___ftdiv@f1 0030  
           ___ftdiv@f2 002D             ___ftdiv@f3 0038             ___ftmul@f1 003D             ___ftmul@f2 0040  
           ___fttol@f1 0078         __pcstackCOMMON 0070           __pidataBANK0 01EE             ___lwtoft@c 002A  
     display1@location 0051             __pmaintext 03C2              ?___ftpack 0070              ?_adc_init 0070  
            ?___lwtoft 002A      __end_of_adc_value 0205              ?_lcd_char 0070             _lcd_string 028D  
            ?_lcd_init 0070              ?_display1 004F                ___ftdiv 0659                ___ftmul 071B  
              ___fttol 05BD                ___lwdiv 0329                ___lwmod 02EC             ??___ftpack 0075  
           ??_adc_init 0072                _lcd_cmd 0228             ??___lwtoft 007C                _display 04A3  
           ??_lcd_char 0070             ??_lcd_init 0072             ??_display1 007E   end_of_initialization 0224  
              init_ram 0209             _temp_value 0372             lcd_cmd@cmd 0071            ?_lcd_string 0072  
          ___ftdiv@exp 003B            ___ftmul@exp 0047    start_initialization 0216            ?_temp_value 004D  
          __pdataBANK0 005F    __size_of_lcd_string 0024        adc_init@channel 0076      __size_of___ftpack 0075  
    __size_of_adc_init 003B      __size_of___lwtoft 001E          __pcstackBANK0 0020              _adc_value 01F7  
    __size_of_lcd_char 0013      __size_of_lcd_init 0021      __size_of_display1 0093          adc_init@value 0074  
     ___lwdiv@dividend 0078              __ptext360 028D              __ptext361 026C              __ptext370 042E  
            __ptext362 0372              __ptext371 02EC              __ptext363 024E              __ptext372 0329  
            __ptext364 071B              __ptext373 02B1              __ptext365 0659              __ptext374 0000  
            __ptext366 023B              __ptext358 052A              __ptext367 0228              __ptext359 04A3  
            __ptext368 01F7              __ptext369 05BD               ?___ftdiv 002D               ?___ftmul 003D  
             ?___fttol 0078               ?___lwdiv 0076               ?___lwmod 0070              __pstrings 0003  
             ?_lcd_cmd 0070               ?_display 0020       ___lwdiv@quotient 007B             ?_adc_value 0077  
  __size_of_temp_value 0050            __stringbase 0012           ??_lcd_string 0074       adc_value@channel 0079  
            init_fetch 0205        display@location 0022       __size_of___ftdiv 00C2       __size_of___ftmul 00E5  
     __size_of___fttol 009C       __size_of___lwdiv 0049     __end_of_lcd_string 02B1       __size_of___lwmod 003D  
             ___ftpack 042E               _adc_init 02B1               ___lwtoft 024E       __size_of_lcd_cmd 0013  
     __size_of_display 0087        ___lwdiv@divisor 0076        ___lwdiv@counter 007D            ??_adc_value 0079  
             _lcd_char 023B               _lcd_init 026C               _display1 052A          __size_of_main 006C  
             main@F569 005F      temp_value@channel 007D           ??_temp_value 007D     __end_of_temp_value 03C2  
     ___lwmod@dividend 0072              stringcode 000D        ___lwmod@divisor 0070        ___lwmod@counter 0075  
             stringdir 000D               stringtab 0003  
